Archive member included because of file (symbol)

C:/usr/xtensa/XtDevTools/install/builds/RI-2019.1-win32/nxp_rt600_RI2019_newlib/xtensa-elf/arch/lib/\libxos.a(xos.o)
                              user/main.o (xos_register_interrupt_handler)
C:/usr/xtensa/XtDevTools/install/builds/RI-2019.1-win32/nxp_rt600_RI2019_newlib/xtensa-elf/arch/lib/\libxos.a(xos_exc_handler.o)
                              C:/usr/xtensa/XtDevTools/install/builds/RI-2019.1-win32/nxp_rt600_RI2019_newlib/xtensa-elf/arch/lib/\libxos.a(xos.o) (_xos_exc_handler_table)
C:/usr/xtensa/XtDevTools/install/builds/RI-2019.1-win32/nxp_rt600_RI2019_newlib/xtensa-elf/arch/lib/\libxos.a(xos_int_table.o)
                              C:/usr/xtensa/XtDevTools/install/builds/RI-2019.1-win32/nxp_rt600_RI2019_newlib/xtensa-elf/arch/lib/\libxos.a(xos.o) (xos_intlevel_mask)
C:/usr/xtensa/XtDevTools/install/builds/RI-2019.1-win32/nxp_rt600_RI2019_newlib/xtensa-elf/arch/lib/\libxos.a(xos_start_main.o)
                              user/main.o (xos_start_main)
C:/usr/xtensa/XtDevTools/install/builds/RI-2019.1-win32/nxp_rt600_RI2019_newlib/xtensa-elf/arch/lib/\libxos.a(xos_thread.o)
                              C:/usr/xtensa/XtDevTools/install/builds/RI-2019.1-win32/nxp_rt600_RI2019_newlib/xtensa-elf/arch/lib/\libxos.a(xos.o) (xos_idle_thread)
C:/usr/xtensa/XtDevTools/install/builds/RI-2019.1-win32/nxp_rt600_RI2019_newlib/xtensa-elf/arch/lib/\libxos.a(xos_timer.o)
                              user/main.o (xos_clock_freq)
C:/usr/xtensa/XtDevTools/install/builds/RI-2019.1-win32/nxp_rt600_RI2019_newlib/xtensa-elf/arch/lib/\libxos.a(xos_handlers.o)
                              C:/usr/xtensa/XtDevTools/install/builds/RI-2019.1-win32/nxp_rt600_RI2019_newlib/xtensa-elf/arch/lib/\libxos.a(xos.o) (xos_hp_dispatch_table)
C:/usr/xtensa/XtDevTools/install/builds/RI-2019.1-win32/nxp_rt600_RI2019_newlib/xtensa-elf/arch/lib/\libxos.a(xos_int_stack.o)
                              C:/usr/xtensa/XtDevTools/install/builds/RI-2019.1-win32/nxp_rt600_RI2019_newlib/xtensa-elf/arch/lib/\libxos.a(xos_handlers.o) (xos_int_stack_end)
C:/usr/xtensa/XtDevTools/install/builds/RI-2019.1-win32/nxp_rt600_RI2019_newlib/xtensa-elf/arch/lib/\libxos.a(xos_vectors.o)
                              C:/usr/xtensa/XtDevTools/install/builds/RI-2019.1-win32/nxp_rt600_RI2019_newlib/xtensa-elf/arch/lib/_vectors.o (_UserExceptionVector)
C:/usr/xtensa/XtDevTools/install/builds/RI-2019.1-win32/nxp_rt600_RI2019_newlib/xtensa-elf/arch/lib/\libxos.a(xos_window_vectors.o)
                              C:/usr/xtensa/XtDevTools/install/builds/RI-2019.1-win32/nxp_rt600_RI2019_newlib/xtensa-elf/arch/lib/_vectors.o (_WindowOverflow4)
C:/usr/xtensa/XtDevTools/install/builds/RI-2019.1-win32/nxp_rt600_RI2019_newlib/xtensa-elf/arch/lib/\libxos.a(xos_clib.o)
                              C:/usr/xtensa/XtDevTools/install/builds/RI-2019.1-win32/nxp_rt600_RI2019_newlib/xtensa-elf/arch/lib/\libxos.a(xos_thread.o) (xos_clib_init)
C:/usr/xtensa/XtDevTools/install/builds/RI-2019.1-win32/nxp_rt600_RI2019_newlib/xtensa-elf/arch/lib/\libxos.a(xos_coproc_handler.o)
                              C:/usr/xtensa/XtDevTools/install/builds/RI-2019.1-win32/nxp_rt600_RI2019_newlib/xtensa-elf/arch/lib/\libxos.a(xos_exc_handler.o) (_xos_coproc_handler)
C:/usr/xtensa/XtDevTools/install/builds/RI-2019.1-win32/nxp_rt600_RI2019_newlib/xtensa-elf/arch/lib/\libxos.a(xos_mutex.o)
                              C:/usr/xtensa/XtDevTools/install/builds/RI-2019.1-win32/nxp_rt600_RI2019_newlib/xtensa-elf/arch/lib/\libxos.a(xos_clib.o) (xos_mutex_create)
C:/usr/xtensa/XtDevTools/install/builds/RI-2019.1-win32/nxp_rt600_RI2019_newlib/xtensa-elf/arch/lib/\libxos.a(xos_once.o)
                              C:/usr/xtensa/XtDevTools/install/builds/RI-2019.1-win32/nxp_rt600_RI2019_newlib/xtensa-elf/arch/lib/\libxos.a(xos_thread.o) (xos_once_init)
C:/usr/xtensa/XtDevTools/install/builds/RI-2019.1-win32/nxp_rt600_RI2019_newlib/xtensa-elf/arch/lib/\libxos.a(xos_system_timer.o)
                              C:/usr/xtensa/XtDevTools/install/builds/RI-2019.1-win32/nxp_rt600_RI2019_newlib/xtensa-elf/arch/lib/\libxos.a(xos_timer.o) (xos_system_timer_set)
C:/usr/xtensa/XtDevTools/install/builds/RI-2019.1-win32/nxp_rt600_RI2019_newlib/xtensa-elf/lib/xcc/\libgcc.a(_muldi3.o)
                              MIMXRT685S/system_MIMXRT685S_dsp.o (__muldi3)
C:/usr/xtensa/XtDevTools/install/builds/RI-2019.1-win32/nxp_rt600_RI2019_newlib/xtensa-elf/lib/xcc/\libgcc.a(_udivdi3.o)
                              MIMXRT685S/system_MIMXRT685S_dsp.o (__udivdi3)
C:/usr/xtensa/XtDevTools/install/builds/RI-2019.1-win32/nxp_rt600_RI2019_newlib/xtensa-elf/lib/\libc.a(clibrary_init.o)
                              C:/usr/xtensa/XtDevTools/install/builds/RI-2019.1-win32/nxp_rt600_RI2019_newlib/xtensa-elf/arch/lib/crt1-boards.o (__clibrary_init)
C:/usr/xtensa/XtDevTools/install/builds/RI-2019.1-win32/nxp_rt600_RI2019_newlib/xtensa-elf/lib/\libc.a(lib_a-assert.o)
                              component/serial_manager/serial_manager.o (__assert_func)
C:/usr/xtensa/XtDevTools/install/builds/RI-2019.1-win32/nxp_rt600_RI2019_newlib/xtensa-elf/lib/\libc.a(lib_a-environ.o)
                              C:/usr/xtensa/XtDevTools/install/builds/RI-2019.1-win32/nxp_rt600_RI2019_newlib/xtensa-elf/lib/\libc.a(clibrary_init.o) (environ)
C:/usr/xtensa/XtDevTools/install/builds/RI-2019.1-win32/nxp_rt600_RI2019_newlib/xtensa-elf/lib/\libc.a(lib_a-exit.o)
                              C:/usr/xtensa/XtDevTools/install/builds/RI-2019.1-win32/nxp_rt600_RI2019_newlib/xtensa-elf/arch/lib/crt1-boards.o (exit)
C:/usr/xtensa/XtDevTools/install/builds/RI-2019.1-win32/nxp_rt600_RI2019_newlib/xtensa-elf/lib/\libc.a(lib_a-fiprintf.o)
                              C:/usr/xtensa/XtDevTools/install/builds/RI-2019.1-win32/nxp_rt600_RI2019_newlib/xtensa-elf/lib/\libc.a(lib_a-assert.o) (fiprintf)
C:/usr/xtensa/XtDevTools/install/builds/RI-2019.1-win32/nxp_rt600_RI2019_newlib/xtensa-elf/lib/\libc.a(lib_a-impure.o)
                              C:/usr/xtensa/XtDevTools/install/builds/RI-2019.1-win32/nxp_rt600_RI2019_newlib/xtensa-elf/arch/lib/\libxos.a(xos_start_main.o) (_impure_ptr)
C:/usr/xtensa/XtDevTools/install/builds/RI-2019.1-win32/nxp_rt600_RI2019_newlib/xtensa-elf/lib/\libc.a(lib_a-malloc.o)
                              drivers/fsl_common.o (malloc)
C:/usr/xtensa/XtDevTools/install/builds/RI-2019.1-win32/nxp_rt600_RI2019_newlib/xtensa-elf/lib/\libc.a(lib_a-mallocr.o)
                              C:/usr/xtensa/XtDevTools/install/builds/RI-2019.1-win32/nxp_rt600_RI2019_newlib/xtensa-elf/lib/\libc.a(lib_a-malloc.o) (_malloc_r)
C:/usr/xtensa/XtDevTools/install/builds/RI-2019.1-win32/nxp_rt600_RI2019_newlib/xtensa-elf/lib/\libc.a(lib_a-memcpy.o)
                              drivers_audio/fsl_dmic_dma.o (memcpy)
C:/usr/xtensa/XtDevTools/install/builds/RI-2019.1-win32/nxp_rt600_RI2019_newlib/xtensa-elf/lib/\libc.a(lib_a-memset.o)
                              drivers/fsl_usart.o (memset)
C:/usr/xtensa/XtDevTools/install/builds/RI-2019.1-win32/nxp_rt600_RI2019_newlib/xtensa-elf/lib/\libc.a(lib_a-reent.o)
                              C:/usr/xtensa/XtDevTools/install/builds/RI-2019.1-win32/nxp_rt600_RI2019_newlib/xtensa-elf/arch/lib/\libxos.a(xos_clib.o) (_reclaim_reent)
C:/usr/xtensa/XtDevTools/install/builds/RI-2019.1-win32/nxp_rt600_RI2019_newlib/xtensa-elf/lib/\libc.a(lib_a-strlen.o)
                              utilities/fsl_str.o (strlen)
C:/usr/xtensa/XtDevTools/install/builds/RI-2019.1-win32/nxp_rt600_RI2019_newlib/xtensa-elf/lib/\libc.a(lib_a-strtoul.o)
                              utilities/fsl_str.o (strtoul)
C:/usr/xtensa/XtDevTools/install/builds/RI-2019.1-win32/nxp_rt600_RI2019_newlib/xtensa-elf/lib/\libc.a(lib_a-vfiprintf.o)
                              C:/usr/xtensa/XtDevTools/install/builds/RI-2019.1-win32/nxp_rt600_RI2019_newlib/xtensa-elf/lib/\libc.a(lib_a-fiprintf.o) (_vfiprintf_r)
C:/usr/xtensa/XtDevTools/install/builds/RI-2019.1-win32/nxp_rt600_RI2019_newlib/xtensa-elf/lib/\libc.a(lib_a-wsetup.o)
                              C:/usr/xtensa/XtDevTools/install/builds/RI-2019.1-win32/nxp_rt600_RI2019_newlib/xtensa-elf/lib/\libc.a(lib_a-vfiprintf.o) (__swsetup_r)
C:/usr/xtensa/XtDevTools/install/builds/RI-2019.1-win32/nxp_rt600_RI2019_newlib/xtensa-elf/lib/\libc.a(_atexit.o)
                              C:/usr/xtensa/XtDevTools/install/builds/RI-2019.1-win32/nxp_rt600_RI2019_newlib/xtensa-elf/lib/\libc.a(clibrary_init.o) (_atexit)
C:/usr/xtensa/XtDevTools/install/builds/RI-2019.1-win32/nxp_rt600_RI2019_newlib/xtensa-elf/lib/\libc.a(lib_a-__call_atexit.o)
                              C:/usr/xtensa/XtDevTools/install/builds/RI-2019.1-win32/nxp_rt600_RI2019_newlib/xtensa-elf/lib/\libc.a(lib_a-exit.o) (__call_exitprocs)
C:/usr/xtensa/XtDevTools/install/builds/RI-2019.1-win32/nxp_rt600_RI2019_newlib/xtensa-elf/lib/\libc.a(lib_a-abort.o)
                              C:/usr/xtensa/XtDevTools/install/builds/RI-2019.1-win32/nxp_rt600_RI2019_newlib/xtensa-elf/lib/\libc.a(lib_a-assert.o) (abort)
C:/usr/xtensa/XtDevTools/install/builds/RI-2019.1-win32/nxp_rt600_RI2019_newlib/xtensa-elf/lib/\libc.a(lib_a-ctype_.o)
                              C:/usr/xtensa/XtDevTools/install/builds/RI-2019.1-win32/nxp_rt600_RI2019_newlib/xtensa-elf/lib/\libc.a(lib_a-strtoul.o) (__ctype_ptr__)
C:/usr/xtensa/XtDevTools/install/builds/RI-2019.1-win32/nxp_rt600_RI2019_newlib/xtensa-elf/lib/\libc.a(lib_a-fflush.o)
                              C:/usr/xtensa/XtDevTools/install/builds/RI-2019.1-win32/nxp_rt600_RI2019_newlib/xtensa-elf/lib/\libc.a(lib_a-vfiprintf.o) (_fflush_r)
C:/usr/xtensa/XtDevTools/install/builds/RI-2019.1-win32/nxp_rt600_RI2019_newlib/xtensa-elf/lib/\libc.a(lib_a-findfp.o)
                              C:/usr/xtensa/XtDevTools/install/builds/RI-2019.1-win32/nxp_rt600_RI2019_newlib/xtensa-elf/lib/\libc.a(lib_a-vfiprintf.o) (__sinit)
C:/usr/xtensa/XtDevTools/install/builds/RI-2019.1-win32/nxp_rt600_RI2019_newlib/xtensa-elf/lib/\libc.a(lib_a-fputwc.o)
                              C:/usr/xtensa/XtDevTools/install/builds/RI-2019.1-win32/nxp_rt600_RI2019_newlib/xtensa-elf/lib/\libc.a(lib_a-vfiprintf.o) (_fputwc_r)
C:/usr/xtensa/XtDevTools/install/builds/RI-2019.1-win32/nxp_rt600_RI2019_newlib/xtensa-elf/lib/\libc.a(lib_a-freer.o)
                              C:/usr/xtensa/XtDevTools/install/builds/RI-2019.1-win32/nxp_rt600_RI2019_newlib/xtensa-elf/lib/\libc.a(lib_a-malloc.o) (_free_r)
C:/usr/xtensa/XtDevTools/install/builds/RI-2019.1-win32/nxp_rt600_RI2019_newlib/xtensa-elf/lib/\libc.a(lib_a-fvwrite.o)
                              C:/usr/xtensa/XtDevTools/install/builds/RI-2019.1-win32/nxp_rt600_RI2019_newlib/xtensa-elf/lib/\libc.a(lib_a-vfiprintf.o) (__sfvwrite_r)
C:/usr/xtensa/XtDevTools/install/builds/RI-2019.1-win32/nxp_rt600_RI2019_newlib/xtensa-elf/lib/\libc.a(lib_a-fwalk.o)
                              C:/usr/xtensa/XtDevTools/install/builds/RI-2019.1-win32/nxp_rt600_RI2019_newlib/xtensa-elf/lib/\libc.a(lib_a-findfp.o) (_fwalk)
C:/usr/xtensa/XtDevTools/install/builds/RI-2019.1-win32/nxp_rt600_RI2019_newlib/xtensa-elf/lib/\libc.a(lib_a-locale.o)
                              C:/usr/xtensa/XtDevTools/install/builds/RI-2019.1-win32/nxp_rt600_RI2019_newlib/xtensa-elf/lib/\libc.a(lib_a-fputwc.o) (__locale_mb_cur_max)
C:/usr/xtensa/XtDevTools/install/builds/RI-2019.1-win32/nxp_rt600_RI2019_newlib/xtensa-elf/lib/\libc.a(lib_a-makebuf.o)
                              C:/usr/xtensa/XtDevTools/install/builds/RI-2019.1-win32/nxp_rt600_RI2019_newlib/xtensa-elf/lib/\libc.a(lib_a-wsetup.o) (__smakebuf_r)
C:/usr/xtensa/XtDevTools/install/builds/RI-2019.1-win32/nxp_rt600_RI2019_newlib/xtensa-elf/lib/\libc.a(lib_a-memchr.o)
                              C:/usr/xtensa/XtDevTools/install/builds/RI-2019.1-win32/nxp_rt600_RI2019_newlib/xtensa-elf/lib/\libc.a(lib_a-vfiprintf.o) (memchr)
C:/usr/xtensa/XtDevTools/install/builds/RI-2019.1-win32/nxp_rt600_RI2019_newlib/xtensa-elf/lib/\libc.a(lib_a-memmove.o)
                              C:/usr/xtensa/XtDevTools/install/builds/RI-2019.1-win32/nxp_rt600_RI2019_newlib/xtensa-elf/lib/\libc.a(lib_a-fvwrite.o) (memmove)
C:/usr/xtensa/XtDevTools/install/builds/RI-2019.1-win32/nxp_rt600_RI2019_newlib/xtensa-elf/lib/\libc.a(lib_a-reallocr.o)
                              C:/usr/xtensa/XtDevTools/install/builds/RI-2019.1-win32/nxp_rt600_RI2019_newlib/xtensa-elf/lib/\libc.a(lib_a-fvwrite.o) (_realloc_r)
C:/usr/xtensa/XtDevTools/install/builds/RI-2019.1-win32/nxp_rt600_RI2019_newlib/xtensa-elf/lib/\libc.a(lib_a-signal.o)
                              C:/usr/xtensa/XtDevTools/install/builds/RI-2019.1-win32/nxp_rt600_RI2019_newlib/xtensa-elf/lib/\libc.a(lib_a-abort.o) (raise)
C:/usr/xtensa/XtDevTools/install/builds/RI-2019.1-win32/nxp_rt600_RI2019_newlib/xtensa-elf/lib/\libc.a(lib_a-stdio.o)
                              C:/usr/xtensa/XtDevTools/install/builds/RI-2019.1-win32/nxp_rt600_RI2019_newlib/xtensa-elf/lib/\libc.a(lib_a-findfp.o) (__sread)
C:/usr/xtensa/XtDevTools/install/builds/RI-2019.1-win32/nxp_rt600_RI2019_newlib/xtensa-elf/lib/\libc.a(lib_a-strcmp.o)
                              C:/usr/xtensa/XtDevTools/install/builds/RI-2019.1-win32/nxp_rt600_RI2019_newlib/xtensa-elf/lib/\libc.a(lib_a-locale.o) (strcmp)
C:/usr/xtensa/XtDevTools/install/builds/RI-2019.1-win32/nxp_rt600_RI2019_newlib/xtensa-elf/lib/\libc.a(lib_a-wbuf.o)
                              C:/usr/xtensa/XtDevTools/install/builds/RI-2019.1-win32/nxp_rt600_RI2019_newlib/xtensa-elf/lib/\libc.a(lib_a-fputwc.o) (__swbuf_r)
C:/usr/xtensa/XtDevTools/install/builds/RI-2019.1-win32/nxp_rt600_RI2019_newlib/xtensa-elf/lib/\libc.a(lib_a-wcrtomb.o)
                              C:/usr/xtensa/XtDevTools/install/builds/RI-2019.1-win32/nxp_rt600_RI2019_newlib/xtensa-elf/lib/\libc.a(lib_a-fputwc.o) (_wcrtomb_r)
C:/usr/xtensa/XtDevTools/install/builds/RI-2019.1-win32/nxp_rt600_RI2019_newlib/xtensa-elf/lib/\libc.a(lib_a-wctomb_r.o)
                              C:/usr/xtensa/XtDevTools/install/builds/RI-2019.1-win32/nxp_rt600_RI2019_newlib/xtensa-elf/lib/\libc.a(lib_a-wcrtomb.o) (__wctomb)
C:/usr/xtensa/XtDevTools/install/builds/RI-2019.1-win32/nxp_rt600_RI2019_newlib/xtensa-elf/lib/\libc.a(isatty.o)
                              C:/usr/xtensa/XtDevTools/install/builds/RI-2019.1-win32/nxp_rt600_RI2019_newlib/xtensa-elf/lib/\libc.a(lib_a-makebuf.o) (_isatty_r)
C:/usr/xtensa/XtDevTools/install/builds/RI-2019.1-win32/nxp_rt600_RI2019_newlib/xtensa-elf/lib/\libc.a(lib_a-fclose.o)
                              C:/usr/xtensa/XtDevTools/install/builds/RI-2019.1-win32/nxp_rt600_RI2019_newlib/xtensa-elf/lib/\libc.a(lib_a-findfp.o) (fclose)
C:/usr/xtensa/XtDevTools/install/builds/RI-2019.1-win32/nxp_rt600_RI2019_newlib/xtensa-elf/lib/\libgdbio.a(close.o)
                              C:/usr/xtensa/XtDevTools/install/builds/RI-2019.1-win32/nxp_rt600_RI2019_newlib/xtensa-elf/lib/\libc.a(lib_a-stdio.o) (_close_r)
C:/usr/xtensa/XtDevTools/install/builds/RI-2019.1-win32/nxp_rt600_RI2019_newlib/xtensa-elf/lib/\libgdbio.a(fstat.o)
                              C:/usr/xtensa/XtDevTools/install/builds/RI-2019.1-win32/nxp_rt600_RI2019_newlib/xtensa-elf/lib/\libc.a(lib_a-makebuf.o) (_fstat_r)
C:/usr/xtensa/XtDevTools/install/builds/RI-2019.1-win32/nxp_rt600_RI2019_newlib/xtensa-elf/lib/\libgdbio.a(kill.o)
                              C:/usr/xtensa/XtDevTools/install/builds/RI-2019.1-win32/nxp_rt600_RI2019_newlib/xtensa-elf/lib/\libc.a(lib_a-signal.o) (_kill_r)
C:/usr/xtensa/XtDevTools/install/builds/RI-2019.1-win32/nxp_rt600_RI2019_newlib/xtensa-elf/lib/\libgdbio.a(libinit.o)
                              C:/usr/xtensa/XtDevTools/install/builds/RI-2019.1-win32/nxp_rt600_RI2019_newlib/xtensa-elf/lib/\libgdbio.a(close.o) (libio_mode)
C:/usr/xtensa/XtDevTools/install/builds/RI-2019.1-win32/nxp_rt600_RI2019_newlib/xtensa-elf/lib/\libgdbio.a(lseek.o)
                              C:/usr/xtensa/XtDevTools/install/builds/RI-2019.1-win32/nxp_rt600_RI2019_newlib/xtensa-elf/lib/\libc.a(lib_a-stdio.o) (_lseek_r)
C:/usr/xtensa/XtDevTools/install/builds/RI-2019.1-win32/nxp_rt600_RI2019_newlib/xtensa-elf/lib/\libgdbio.a(read.o)
                              C:/usr/xtensa/XtDevTools/install/builds/RI-2019.1-win32/nxp_rt600_RI2019_newlib/xtensa-elf/lib/\libc.a(lib_a-stdio.o) (_read_r)
C:/usr/xtensa/XtDevTools/install/builds/RI-2019.1-win32/nxp_rt600_RI2019_newlib/xtensa-elf/lib/\libgdbio.a(semihosting.o)
                              C:/usr/xtensa/XtDevTools/install/builds/RI-2019.1-win32/nxp_rt600_RI2019_newlib/xtensa-elf/lib/\libgdbio.a(close.o) (_gdbio_to_xtensa_errno)
C:/usr/xtensa/XtDevTools/install/builds/RI-2019.1-win32/nxp_rt600_RI2019_newlib/xtensa-elf/lib/\libgdbio.a(syscall.o)
                              C:/usr/xtensa/XtDevTools/install/builds/RI-2019.1-win32/nxp_rt600_RI2019_newlib/xtensa-elf/lib/\libgdbio.a(close.o) (_gdbio_syscall)
C:/usr/xtensa/XtDevTools/install/builds/RI-2019.1-win32/nxp_rt600_RI2019_newlib/xtensa-elf/lib/\libgdbio.a(write.o)
                              C:/usr/xtensa/XtDevTools/install/builds/RI-2019.1-win32/nxp_rt600_RI2019_newlib/xtensa-elf/lib/\libc.a(lib_a-stdio.o) (_write_r)
C:/usr/xtensa/XtDevTools/install/builds/RI-2019.1-win32/nxp_rt600_RI2019_newlib/xtensa-elf/lib/\libgdbio.a(getpid.o)
                              C:/usr/xtensa/XtDevTools/install/builds/RI-2019.1-win32/nxp_rt600_RI2019_newlib/xtensa-elf/lib/\libc.a(lib_a-signal.o) (_getpid_r)
C:/usr/xtensa/XtDevTools/install/builds/RI-2019.1-win32/nxp_rt600_RI2019_newlib/xtensa-elf/lib/\libgdbio.a(miniboard.o)
                              C:/usr/xtensa/XtDevTools/install/builds/RI-2019.1-win32/nxp_rt600_RI2019_newlib/xtensa-elf/arch/lib/crt1-boards.o (board_init)
C:/usr/xtensa/XtDevTools/install/builds/RI-2019.1-win32/nxp_rt600_RI2019_newlib/xtensa-elf/arch/lib/\libhandler-reset.a(reset-vector.o)
                              (_ResetVector)
C:/usr/xtensa/XtDevTools/install/builds/RI-2019.1-win32/nxp_rt600_RI2019_newlib/xtensa-elf/arch/lib/\libhandlers-board.a(exit.o)
                              C:/usr/xtensa/XtDevTools/install/builds/RI-2019.1-win32/nxp_rt600_RI2019_newlib/xtensa-elf/lib/\libc.a(lib_a-exit.o) (_exit)
C:/usr/xtensa/XtDevTools/install/builds/RI-2019.1-win32/nxp_rt600_RI2019_newlib/xtensa-elf/arch/lib/\libhandlers-board.a(memctl_default.o)
                              C:/usr/xtensa/XtDevTools/install/builds/RI-2019.1-win32/nxp_rt600_RI2019_newlib/xtensa-elf/arch/lib/\libhandler-reset.a(reset-vector.o) (__memctl_default_post)
C:/usr/xtensa/XtDevTools/install/builds/RI-2019.1-win32/nxp_rt600_RI2019_newlib/xtensa-elf/arch/lib/\libhal.a(windowspill_asm.o)
                              C:/usr/xtensa/XtDevTools/install/builds/RI-2019.1-win32/nxp_rt600_RI2019_newlib/xtensa-elf/arch/lib/\libxos.a(xos_handlers.o) (xthal_window_spill_nw)
C:/usr/xtensa/XtDevTools/install/builds/RI-2019.1-win32/nxp_rt600_RI2019_newlib/xtensa-elf/arch/lib/\libhal.a(cache_asm--dcache_all_writeback.o)
                              C:/usr/xtensa/XtDevTools/install/builds/RI-2019.1-win32/nxp_rt600_RI2019_newlib/xtensa-elf/arch/lib/\libhandlers-board.a(exit.o) (xthal_dcache_all_writeback)
C:/usr/xtensa/XtDevTools/install/builds/RI-2019.1-win32/nxp_rt600_RI2019_newlib/xtensa-elf/arch/lib/\libhal.a(cache_asm--hw_configid0.o)
                              C:/usr/xtensa/XtDevTools/install/builds/RI-2019.1-win32/nxp_rt600_RI2019_newlib/xtensa-elf/arch/lib/_vectors.o (xthals_hw_configid0)
C:/usr/xtensa/XtDevTools/install/builds/RI-2019.1-win32/nxp_rt600_RI2019_newlib/xtensa-elf/arch/lib/\libhal.a(cache_asm--hw_configid1.o)
                              C:/usr/xtensa/XtDevTools/install/builds/RI-2019.1-win32/nxp_rt600_RI2019_newlib/xtensa-elf/arch/lib/_vectors.o (xthals_hw_configid1)
C:/usr/xtensa/XtDevTools/install/builds/RI-2019.1-win32/nxp_rt600_RI2019_newlib/xtensa-elf/arch/lib/\libhal.a(cache_asm--release_major.o)
                              C:/usr/xtensa/XtDevTools/install/builds/RI-2019.1-win32/nxp_rt600_RI2019_newlib/xtensa-elf/arch/lib/_vectors.o (xthals_release_major)
C:/usr/xtensa/XtDevTools/install/builds/RI-2019.1-win32/nxp_rt600_RI2019_newlib/xtensa-elf/arch/lib/\libhal.a(cache_asm--release_minor.o)
                              C:/usr/xtensa/XtDevTools/install/builds/RI-2019.1-win32/nxp_rt600_RI2019_newlib/xtensa-elf/arch/lib/_vectors.o (xthals_release_minor)
C:/usr/xtensa/XtDevTools/install/builds/RI-2019.1-win32/nxp_rt600_RI2019_newlib/xtensa-elf/arch/lib/\libhal.a(const--intlevel.o)
                              C:/usr/xtensa/XtDevTools/install/builds/RI-2019.1-win32/nxp_rt600_RI2019_newlib/xtensa-elf/arch/lib/\libxos.a(xos_system_timer.o) (Xthal_intlevel)
C:/usr/xtensa/XtDevTools/install/builds/RI-2019.1-win32/nxp_rt600_RI2019_newlib/xtensa-elf/arch/lib/\libhal.a(const--intlevel_mask.o)
                              C:/usr/xtensa/XtDevTools/install/builds/RI-2019.1-win32/nxp_rt600_RI2019_newlib/xtensa-elf/arch/lib/\libxos.a(xos_handlers.o) (Xthal_intlevel_mask)
C:/usr/xtensa/XtDevTools/install/builds/RI-2019.1-win32/nxp_rt600_RI2019_newlib/xtensa-elf/arch/lib/\libhal.a(const--timer_interrupt.o)
                              C:/usr/xtensa/XtDevTools/install/builds/RI-2019.1-win32/nxp_rt600_RI2019_newlib/xtensa-elf/arch/lib/\libxos.a(xos_system_timer.o) (Xthal_timer_interrupt)
C:/usr/xtensa/XtDevTools/install/builds/RI-2019.1-win32/nxp_rt600_RI2019_newlib/xtensa-elf/arch/lib/\libhal.a(attribute.o)
                              user/main.o (xthal_set_region_attribute)
C:/usr/xtensa/XtDevTools/install/builds/RI-2019.1-win32/nxp_rt600_RI2019_newlib/xtensa-elf/arch/lib/\libhal.a(clock.o)
                              drivers/fsl_common.o (xthal_get_ccount)
C:/usr/xtensa/XtDevTools/install/builds/RI-2019.1-win32/nxp_rt600_RI2019_newlib/xtensa-elf/arch/lib/\libhal.a(cache_attr--get_cacheattr.o)
                              C:/usr/xtensa/XtDevTools/install/builds/RI-2019.1-win32/nxp_rt600_RI2019_newlib/xtensa-elf/arch/lib/\libhal.a(attribute.o) (xthal_get_cacheattr)
C:/usr/xtensa/XtDevTools/install/builds/RI-2019.1-win32/nxp_rt600_RI2019_newlib/xtensa-elf/arch/lib/\libhal.a(cache_attr--set_cacheattr.o)
                              C:/usr/xtensa/XtDevTools/install/builds/RI-2019.1-win32/nxp_rt600_RI2019_newlib/xtensa-elf/arch/lib/\libhal.a(attribute.o) (xthal_set_cacheattr)
C:/usr/xtensa/XtDevTools/install/builds/RI-2019.1-win32/nxp_rt600_RI2019_newlib/xtensa-elf/arch/lib/\libhal.a(cache_asm--dcache_all_writeback_inv.o)
                              C:/usr/xtensa/XtDevTools/install/builds/RI-2019.1-win32/nxp_rt600_RI2019_newlib/xtensa-elf/arch/lib/\libhal.a(attribute.o) (xthal_dcache_all_writeback_inv)
C:/usr/xtensa/XtDevTools/install/builds/RI-2019.1-win32/nxp_rt600_RI2019_newlib/xtensa-elf/arch/lib/\libhal.a(cache_asm--icache_all_invalidate.o)
                              C:/usr/xtensa/XtDevTools/install/builds/RI-2019.1-win32/nxp_rt600_RI2019_newlib/xtensa-elf/arch/lib/\libhal.a(attribute.o) (xthal_icache_all_invalidate)
C:/usr/xtensa/XtDevTools/install/builds/RI-2019.1-win32/nxp_rt600_RI2019_newlib/xtensa-elf/lib/xcc/\libgcc.a(_umoddi3.o)
                              C:/usr/xtensa/XtDevTools/install/builds/RI-2019.1-win32/nxp_rt600_RI2019_newlib/xtensa-elf/lib/\libc.a(lib_a-vfiprintf.o) (__umoddi3)

Linker script and memory map

LOAD C:/usr/xtensa/XtDevTools/install/builds/RI-2019.1-win32/nxp_rt600_RI2019_newlib/xtensa-elf/arch/lib/crt1-boards.o
LOAD C:/usr/xtensa/XtDevTools/install/builds/RI-2019.1-win32/nxp_rt600_RI2019_newlib/xtensa-elf/lib/xcc/crti.o
LOAD C:/usr/xtensa/XtDevTools/install/builds/RI-2019.1-win32/nxp_rt600_RI2019_newlib/xtensa-elf/lib/xcc/crtbegin.o
LOAD C:/usr/xtensa/XtDevTools/install/builds/RI-2019.1-win32/nxp_rt600_RI2019_newlib/xtensa-elf/arch/lib/_sharedvectors.o
LOAD C:/usr/xtensa/XtDevTools/install/builds/RI-2019.1-win32/nxp_rt600_RI2019_newlib/xtensa-elf/arch/lib/_vectors.o
LOAD MIMXRT685S/system_MIMXRT685S_dsp.o
LOAD board/pin_mux.o
LOAD component/lists/generic_list.o
LOAD component/serial_manager/serial_manager.o
LOAD component/serial_manager/serial_port_uart.o
LOAD component/uart/usart_adapter.o
LOAD drivers/fsl_clock.o
LOAD drivers/fsl_common.o
LOAD drivers/fsl_flexcomm.o
LOAD drivers/fsl_gpio.o
LOAD drivers/fsl_reset.o
LOAD drivers/fsl_usart.o
LOAD drivers_audio/fsl_dma.o
LOAD drivers_audio/fsl_dmic.o
LOAD drivers_audio/fsl_dmic_dma.o
LOAD drivers_audio/fsl_i2s.o
LOAD drivers_audio/fsl_i2s_dma.o
LOAD drivers_audio/fsl_inputmux.o
LOAD evkmimxrt685/board_hifi4.o
LOAD user/main.o
LOAD user/user_pin_mux.o
LOAD utilities/fsl_debug_console.o
LOAD utilities/fsl_str.o
LOAD C:/usr/xtensa/XtDevTools/install/builds/RI-2019.1-win32/nxp_rt600_RI2019_newlib/xtensa-elf/arch/lib/\libxos.a
LOAD C:/usr/xtensa/XtDevTools/install/builds/RI-2019.1-win32/nxp_rt600_RI2019_newlib/xtensa-elf/lib/xcc/\libstdc++.a
LOAD C:/usr/xtensa/XtDevTools/install/builds/RI-2019.1-win32/nxp_rt600_RI2019_newlib/xtensa-elf/lib/\libm.a
LOAD C:/usr/xtensa/XtDevTools/install/builds/RI-2019.1-win32/nxp_rt600_RI2019_newlib/xtensa-elf/lib/xcc/\libgcc.a
LOAD C:/usr/xtensa/XtDevTools/install/builds/RI-2019.1-win32/nxp_rt600_RI2019_newlib/xtensa-elf/lib/\libc.a
LOAD C:/usr/xtensa/XtDevTools/install/builds/RI-2019.1-win32/nxp_rt600_RI2019_newlib/xtensa-elf/lib/\libgdbio.a
LOAD C:/usr/xtensa/XtDevTools/install/builds/RI-2019.1-win32/nxp_rt600_RI2019_newlib/xtensa-elf/lib/\libc.a
LOAD C:/usr/xtensa/XtDevTools/install/builds/RI-2019.1-win32/nxp_rt600_RI2019_newlib/xtensa-elf/arch/lib/\libhandler-reset.a
LOAD C:/usr/xtensa/XtDevTools/install/builds/RI-2019.1-win32/nxp_rt600_RI2019_newlib/xtensa-elf/arch/lib/\libhandlers-board.a
LOAD C:/usr/xtensa/XtDevTools/install/builds/RI-2019.1-win32/nxp_rt600_RI2019_newlib/xtensa-elf/lib/\libgdbio.a
LOAD C:/usr/xtensa/XtDevTools/install/builds/RI-2019.1-win32/nxp_rt600_RI2019_newlib/xtensa-elf/arch/lib/\libhal.a
LOAD C:/usr/xtensa/XtDevTools/install/builds/RI-2019.1-win32/nxp_rt600_RI2019_newlib/xtensa-elf/lib/\libc.a
LOAD C:/usr/xtensa/XtDevTools/install/builds/RI-2019.1-win32/nxp_rt600_RI2019_newlib/xtensa-elf/lib/xcc/\libgcc.a
LOAD C:/usr/xtensa/XtDevTools/install/builds/RI-2019.1-win32/nxp_rt600_RI2019_newlib/xtensa-elf/lib/xcc/crtend.o
LOAD C:/usr/xtensa/XtDevTools/install/builds/RI-2019.1-win32/nxp_rt600_RI2019_newlib/xtensa-elf/lib/xcc/crtn.o
                0x00000000                _memmap_mem_sram_start = 0x0
                0x00480000                _memmap_mem_sram_end = 0x480000
                0x24000000                _memmap_mem_dram0_start = 0x24000000
                0x24010000                _memmap_mem_dram0_end = 0x24010000
                0x24020000                _memmap_mem_iram0_start = 0x24020000
                0x24030000                _memmap_mem_iram0_end = 0x24030000
                0x20000000                _memmap_mem_sram_uncached_start = 0x20000000
                0x20480000                _memmap_mem_sram_uncached_end = 0x20480000
                0x00200000                _memmap_seg_dsp_core_start = 0x200000
                0x00480000                _memmap_seg_dsp_core_max = 0x480000
                0x20040000                _memmap_seg_dsp_uncached_start = 0x20040000
                0x20080000                _memmap_seg_dsp_uncached_max = 0x20080000
                0x24000000                _memmap_seg_dram0_0_start = 0x24000000
                0x24010000                _memmap_seg_dram0_0_max = 0x24010000
                0x24020000                _memmap_seg_iram0_0_start = 0x24020000
                0x24020400                _memmap_seg_iram0_0_max = 0x24020400
                0x24020400                _memmap_seg_iram0_1_start = 0x24020400
                0x2402057c                _memmap_seg_iram0_1_max = 0x2402057c
                0x2402057c                _memmap_seg_iram0_2_start = 0x2402057c
                0x2402059c                _memmap_seg_iram0_2_max = 0x2402059c
                0x2402059c                _memmap_seg_iram0_3_start = 0x2402059c
                0x240205bc                _memmap_seg_iram0_3_max = 0x240205bc
                0x240205bc                _memmap_seg_iram0_4_start = 0x240205bc
                0x240205dc                _memmap_seg_iram0_4_max = 0x240205dc
                0x240205dc                _memmap_seg_iram0_5_start = 0x240205dc
                0x240205fc                _memmap_seg_iram0_5_max = 0x240205fc
                0x240205fc                _memmap_seg_iram0_6_start = 0x240205fc
                0x2402061c                _memmap_seg_iram0_6_max = 0x2402061c
                0x2402061c                _memmap_seg_iram0_7_start = 0x2402061c
                0x2402063c                _memmap_seg_iram0_7_max = 0x2402063c
                0x2402063c                _memmap_seg_iram0_8_start = 0x2402063c
                0x24030000                _memmap_seg_iram0_8_max = 0x24030000
                0x00000000                _rom_store_table = 0x0
                0x24020000                PROVIDE (_memmap_reset_vector, 0x24020000)
                0x24020400                PROVIDE (_memmap_vecbase_reset, 0x24020400)
                0x00024044                _memmap_cacheattr_wb_base = 0x24044
                0x00021011                _memmap_cacheattr_wt_base = 0x21011
                0x00022022                _memmap_cacheattr_bp_base = 0x22022
                0xfff00f00                _memmap_cacheattr_unused_mask = 0xfff00f00
                0x22224244                _memmap_cacheattr_wb_trapnull = 0x22224244
                0x22224244                _memmap_cacheattr_wba_trapnull = 0x22224244
                0x22225255                _memmap_cacheattr_wbna_trapnull = 0x22225255
                0x22221211                _memmap_cacheattr_wt_trapnull = 0x22221211
                0x22222222                _memmap_cacheattr_bp_trapnull = 0x22222222
                0xfff24f44                _memmap_cacheattr_wb_strict = 0xfff24f44
                0xfff21f11                _memmap_cacheattr_wt_strict = 0xfff21f11
                0xfff22f22                _memmap_cacheattr_bp_strict = 0xfff22f22
                0x22224244                _memmap_cacheattr_wb_allvalid = 0x22224244
                0x22221211                _memmap_cacheattr_wt_allvalid = 0x22221211
                0x22222222                _memmap_cacheattr_bp_allvalid = 0x22222222
                0x0000001b                _memmap_region_map = 0x1b
                0x22224244                PROVIDE (_memmap_cacheattr_reset, _memmap_cacheattr_wb_trapnull)

NonCacheable.init
                0x20040000        0x0
                0x20040000                NonCacheable_init_start = ABSOLUTE (.)
 *(NonCacheable.init)
                0x20040000                . = ALIGN (0x4)
                0x20040000                NonCacheable_init_end = ABSOLUTE (.)

NonCacheable    0x20040000      0x710
                0x20040000                NonCacheable_start = ABSOLUTE (.)
 *(NonCacheable)
 NonCacheable   0x20040000      0x610 drivers_audio/fsl_dma.o
                0x20040000                s_dma_descriptor_table0
                0x20040400                s_dma_descriptor_table1
 NonCacheable   0x20040610      0x100 drivers_audio/fsl_i2s_dma.o
                0x20040610                s_DmaDescriptors
                0x20040710                . = ALIGN (0x4)
                0x20040710                NonCacheable_end = ABSOLUTE (.)
                0x20040710                _memmap_seg_dsp_uncached_end = ALIGN (0x8)

.dram0.rodata   0x24000000        0x0
                0x24000000                _dram0_rodata_start = ABSOLUTE (.)
 *(.dram0.rodata)
 *(.dram.rodata)
                0x24000000                . = ALIGN (0x4)
                0x24000000                _dram0_rodata_end = ABSOLUTE (.)

.ResetVector.literal
                0x24000000        0x0
                0x24000000                _ResetVector_literal_start = ABSOLUTE (.)
 *(.ResetVector.literal)
 .ResetVector.literal
                0x24000000        0x0 C:/usr/xtensa/XtDevTools/install/builds/RI-2019.1-win32/nxp_rt600_RI2019_newlib/xtensa-elf/arch/lib/\libhandler-reset.a(reset-vector.o)
                0x24000000                . = ALIGN (0x4)
                0x24000000                _ResetVector_literal_end = ABSOLUTE (.)

.Level2InterruptVector.literal
                0x24000000        0x0
                0x24000000                _Level2InterruptVector_literal_start = ABSOLUTE (.)
 *(.Level2InterruptVector.literal)
                0x24000000                . = ALIGN (0x4)
                0x24000000                _Level2InterruptVector_literal_end = ABSOLUTE (.)

.Level3InterruptVector.literal
                0x24000000        0x4
                0x24000000                _Level3InterruptVector_literal_start = ABSOLUTE (.)
 *(.Level3InterruptVector.literal)
 .Level3InterruptVector.literal
                0x24000000        0x4 C:/usr/xtensa/XtDevTools/install/builds/RI-2019.1-win32/nxp_rt600_RI2019_newlib/xtensa-elf/arch/lib/\libxos.a(xos_vectors.o)
                0x24000004                . = ALIGN (0x4)
                0x24000004                _Level3InterruptVector_literal_end = ABSOLUTE (.)

.DebugExceptionVector.literal
                0x24000004        0x4
                0x24000004                _DebugExceptionVector_literal_start = ABSOLUTE (.)
 *(.DebugExceptionVector.literal)
 .DebugExceptionVector.literal
                0x24000004        0x4 C:/usr/xtensa/XtDevTools/install/builds/RI-2019.1-win32/nxp_rt600_RI2019_newlib/xtensa-elf/arch/lib/\libxos.a(xos_vectors.o)
                0x24000008                . = ALIGN (0x4)
                0x24000008                _DebugExceptionVector_literal_end = ABSOLUTE (.)

.NMIExceptionVector.literal
                0x24000008        0x4
                0x24000008                _NMIExceptionVector_literal_start = ABSOLUTE (.)
 *(.NMIExceptionVector.literal)
 .NMIExceptionVector.literal
                0x24000008        0x4 C:/usr/xtensa/XtDevTools/install/builds/RI-2019.1-win32/nxp_rt600_RI2019_newlib/xtensa-elf/arch/lib/\libxos.a(xos_vectors.o)
                0x2400000c                . = ALIGN (0x4)
                0x2400000c                _NMIExceptionVector_literal_end = ABSOLUTE (.)

.KernelExceptionVector.literal
                0x2400000c        0x0
                0x2400000c                _KernelExceptionVector_literal_start = ABSOLUTE (.)
 *(.KernelExceptionVector.literal)
                0x2400000c                . = ALIGN (0x4)
                0x2400000c                _KernelExceptionVector_literal_end = ABSOLUTE (.)

.UserExceptionVector.literal
                0x2400000c        0x0
                0x2400000c                _UserExceptionVector_literal_start = ABSOLUTE (.)
 *(.UserExceptionVector.literal)
                0x2400000c                . = ALIGN (0x4)
                0x2400000c                _UserExceptionVector_literal_end = ABSOLUTE (.)

.DoubleExceptionVector.literal
                0x2400000c        0x0
                0x2400000c                _DoubleExceptionVector_literal_start = ABSOLUTE (.)
 *(.DoubleExceptionVector.literal)
                0x2400000c                . = ALIGN (0x4)
                0x2400000c                _DoubleExceptionVector_literal_end = ABSOLUTE (.)

.iram0.literal  0x2400000c        0x0
                0x2400000c                _iram0_literal_start = ABSOLUTE (.)
 *(.iram0.literal)
 *(.iram.literal)
 *(.iram.text.literal)
                0x2400000c                . = ALIGN (0x4)
                0x2400000c                _iram0_literal_end = ABSOLUTE (.)

.dram0.data     0x2400000c        0x0
                0x2400000c                _dram0_data_start = ABSOLUTE (.)
 *(.dram0.data)
 *(.dram.data)
                0x2400000c                . = ALIGN (0x4)
                0x2400000c                _dram0_data_end = ABSOLUTE (.)

.dram0.bss      0x24000010        0x0
                0x24000010                . = ALIGN (0x8)
                0x24000010                _dram0_bss_start = ABSOLUTE (.)
 *(.dram0.bss)
                0x24000010                . = ALIGN (0x8)
                0x24000010                _dram0_bss_end = ABSOLUTE (.)
                0x24000010                _memmap_seg_dram0_0_end = ALIGN (0x8)

.ResetVector.text
                0x24020000      0x13c
                0x24020000                _ResetVector_text_start = ABSOLUTE (.)
 *(.ResetVector.text)
 .ResetVector.text
                0x24020000      0x13b C:/usr/xtensa/XtDevTools/install/builds/RI-2019.1-win32/nxp_rt600_RI2019_newlib/xtensa-elf/arch/lib/\libhandler-reset.a(reset-vector.o)
                0x24020000                _ResetVector
                0x24020044                _ResetHandler
                0x2402013c                . = ALIGN (0x4)
 *fill*         0x2402013b        0x1 
                0x2402013c                _ResetVector_text_end = ABSOLUTE (.)

.ResetHandler.text
                0x2402013c        0x0
                0x2402013c                _ResetHandler_text_start = ABSOLUTE (.)
 *(.ResetHandler.literal .ResetHandler.text)
                0x2402013c                . = ALIGN (0x4)
                0x2402013c                _ResetHandler_text_end = ABSOLUTE (.)
                0x24020140                _memmap_seg_iram0_0_end = ALIGN (0x8)

.WindowVectors.text
                0x24020400      0x16c
                0x24020400                _WindowVectors_text_start = ABSOLUTE (.)
 *(.WindowVectors.text)
 .WindowVectors.text
                0x24020400      0x16a C:/usr/xtensa/XtDevTools/install/builds/RI-2019.1-win32/nxp_rt600_RI2019_newlib/xtensa-elf/arch/lib/\libxos.a(xos_window_vectors.o)
                0x24020400                _WindowOverflow4
                0x24020440                _WindowUnderflow4
                0x24020450                _xos_alloca_handler
                0x24020480                _WindowOverflow8
                0x240204c0                _WindowUnderflow8
                0x24020500                _WindowOverflow12
                0x24020540                _WindowUnderflow12
                0x2402056c                . = ALIGN (0x4)
 *fill*         0x2402056a        0x2 
                0x2402056c                _WindowVectors_text_end = ABSOLUTE (.)
                0x24020570                _memmap_seg_iram0_1_end = ALIGN (0x8)

.Level2InterruptVector.text
                0x2402057c       0x1c
                0x2402057c                _Level2InterruptVector_text_start = ABSOLUTE (.)
 *(.Level2InterruptVector.text)
 .Level2InterruptVector.text
                0x2402057c       0x1a C:/usr/xtensa/XtDevTools/install/builds/RI-2019.1-win32/nxp_rt600_RI2019_newlib/xtensa-elf/arch/lib/\libxos.a(xos_vectors.o)
                0x2402057c                _Level2Vector
                0x24020598                . = ALIGN (0x4)
 *fill*         0x24020596        0x2 
                0x24020598                _Level2InterruptVector_text_end = ABSOLUTE (.)
                0x24020598                _memmap_seg_iram0_2_end = ALIGN (0x8)

.Level3InterruptVector.text
                0x2402059c        0xc
                0x2402059c                _Level3InterruptVector_text_start = ABSOLUTE (.)
 *(.Level3InterruptVector.text)
 .Level3InterruptVector.text
                0x2402059c        0x9 C:/usr/xtensa/XtDevTools/install/builds/RI-2019.1-win32/nxp_rt600_RI2019_newlib/xtensa-elf/arch/lib/\libxos.a(xos_vectors.o)
                0x2402059c                _Level3Vector
                0x240205a8                . = ALIGN (0x4)
 *fill*         0x240205a5        0x3 
                0x240205a8                _Level3InterruptVector_text_end = ABSOLUTE (.)
                0x240205a8                _memmap_seg_iram0_3_end = ALIGN (0x8)

.DebugExceptionVector.text
                0x240205bc        0xc
                0x240205bc                _DebugExceptionVector_text_start = ABSOLUTE (.)
 *(.DebugExceptionVector.text)
 .DebugExceptionVector.text
                0x240205bc        0x9 C:/usr/xtensa/XtDevTools/install/builds/RI-2019.1-win32/nxp_rt600_RI2019_newlib/xtensa-elf/arch/lib/\libxos.a(xos_vectors.o)
                0x240205bc                _DebugExceptionVector
                0x240205c8                . = ALIGN (0x4)
 *fill*         0x240205c5        0x3 
                0x240205c8                _DebugExceptionVector_text_end = ABSOLUTE (.)
                0x240205c8                _memmap_seg_iram0_4_end = ALIGN (0x8)

.NMIExceptionVector.text
                0x240205dc        0xc
                0x240205dc                _NMIExceptionVector_text_start = ABSOLUTE (.)
 *(.NMIExceptionVector.text)
 .NMIExceptionVector.text
                0x240205dc        0x9 C:/usr/xtensa/XtDevTools/install/builds/RI-2019.1-win32/nxp_rt600_RI2019_newlib/xtensa-elf/arch/lib/\libxos.a(xos_vectors.o)
                0x240205dc                _NMIExceptionVector
                0x240205e8                . = ALIGN (0x4)
 *fill*         0x240205e5        0x3 
                0x240205e8                _NMIExceptionVector_text_end = ABSOLUTE (.)
                0x240205e8                _memmap_seg_iram0_5_end = ALIGN (0x8)

.KernelExceptionVector.text
                0x240205fc        0xc
                0x240205fc                _KernelExceptionVector_text_start = ABSOLUTE (.)
 *(.KernelExceptionVector.text)
 .KernelExceptionVector.text
                0x240205fc        0x9 C:/usr/xtensa/XtDevTools/install/builds/RI-2019.1-win32/nxp_rt600_RI2019_newlib/xtensa-elf/arch/lib/\libxos.a(xos_vectors.o)
                0x240205fc                _KernelExceptionVector
                0x24020608                . = ALIGN (0x4)
 *fill*         0x24020605        0x3 
                0x24020608                _KernelExceptionVector_text_end = ABSOLUTE (.)
                0x24020608                _memmap_seg_iram0_6_end = ALIGN (0x8)

.UserExceptionVector.text
                0x2402061c       0x18
                0x2402061c                _UserExceptionVector_text_start = ABSOLUTE (.)
 *(.UserExceptionVector.text)
 .UserExceptionVector.text
                0x2402061c       0x18 C:/usr/xtensa/XtDevTools/install/builds/RI-2019.1-win32/nxp_rt600_RI2019_newlib/xtensa-elf/arch/lib/\libxos.a(xos_vectors.o)
                0x2402061c                _UserExceptionVector
                0x24020634                . = ALIGN (0x4)
                0x24020634                _UserExceptionVector_text_end = ABSOLUTE (.)
                0x24020638                _memmap_seg_iram0_7_end = ALIGN (0x8)

.DoubleExceptionVector.text
                0x2402063c        0x8
                0x2402063c                _DoubleExceptionVector_text_start = ABSOLUTE (.)
 *(.DoubleExceptionVector.text)
 .DoubleExceptionVector.text
                0x2402063c        0x6 C:/usr/xtensa/XtDevTools/install/builds/RI-2019.1-win32/nxp_rt600_RI2019_newlib/xtensa-elf/arch/lib/\libxos.a(xos_vectors.o)
                0x2402063c                _DoubleExceptionVector
                0x24020644                . = ALIGN (0x4)
 *fill*         0x24020642        0x2 
                0x24020644                _DoubleExceptionVector_text_end = ABSOLUTE (.)

.iram0.text     0x24020644        0x0
                0x24020644                _iram0_text_start = ABSOLUTE (.)
 *(.iram0.text)
 *(.iram.text)
                0x24020644                . = ALIGN (0x4)
                0x24020644                _iram0_text_end = ABSOLUTE (.)
                0x24020648                _memmap_seg_iram0_8_end = ALIGN (0x8)

.sram.rodata    0x00200000        0x0
                0x00200000                _sram_rodata_start = ABSOLUTE (.)
 *(.sram.rodata)
                0x00200000                . = ALIGN (0x4)
                0x00200000                _sram_rodata_end = ABSOLUTE (.)

.clib.rodata    0x00200000        0x0
                0x00200000                _clib_rodata_start = ABSOLUTE (.)
 *(.clib.rodata)
                0x00200000                . = ALIGN (0x4)
                0x00200000                _clib_rodata_end = ABSOLUTE (.)

.rtos.rodata    0x00200000       0x80
                0x00200000                _rtos_rodata_start = ABSOLUTE (.)
 *(.rtos.rodata)
 .rtos.rodata   0x00200000       0x20 C:/usr/xtensa/XtDevTools/install/builds/RI-2019.1-win32/nxp_rt600_RI2019_newlib/xtensa-elf/arch/lib/\libhal.a(const--intlevel.o)
                0x00200000                Xthal_intlevel
 .rtos.rodata   0x00200020       0x40 C:/usr/xtensa/XtDevTools/install/builds/RI-2019.1-win32/nxp_rt600_RI2019_newlib/xtensa-elf/arch/lib/\libhal.a(const--intlevel_mask.o)
                0x00200020                Xthal_intlevel_mask
 .rtos.rodata   0x00200060       0x10 C:/usr/xtensa/XtDevTools/install/builds/RI-2019.1-win32/nxp_rt600_RI2019_newlib/xtensa-elf/arch/lib/\libhal.a(const--timer_interrupt.o)
                0x00200060                Xthal_timer_interrupt
 .rtos.rodata   0x00200070       0x10 C:/usr/xtensa/XtDevTools/install/builds/RI-2019.1-win32/nxp_rt600_RI2019_newlib/xtensa-elf/arch/lib/\libhal.a(attribute.o)
                0x00200080                . = ALIGN (0x4)
                0x00200080                _rtos_rodata_end = ABSOLUTE (.)

.rodata         0x00200080     0x37f4
                0x00200080                _rodata_start = ABSOLUTE (.)
 *(.rodata)
 .rodata        0x00200080      0x25b component/serial_manager/serial_manager.o
 *fill*         0x002002db        0x5 
 .rodata        0x002002e0      0x148 component/serial_manager/serial_port_uart.o
 *fill*         0x00200428        0x8 
 .rodata        0x00200430      0x1b5 component/uart/usart_adapter.o
 *fill*         0x002005e5        0xb 
 .rodata        0x002005f0      0x1d2 drivers/fsl_clock.o
 *fill*         0x002007c2        0xe 
 .rodata        0x002007d0       0xb3 drivers/fsl_common.o
 *fill*         0x00200883        0xd 
 .rodata        0x00200890      0x47c drivers/fsl_flexcomm.o
                0x00200920                kFlexcommIrqs
 *fill*         0x00200d0c        0x4 
 .rodata        0x00200d10      0x18e drivers/fsl_gpio.o
 *fill*         0x00200e9e        0x2 
 .rodata        0x00200ea0       0xbb drivers/fsl_reset.o
 *fill*         0x00200f5b        0x5 
 .rodata        0x00200f60      0x528 drivers/fsl_usart.o
 *fill*         0x00201488        0x8 
 .rodata        0x00201490      0xca2 drivers_audio/fsl_dma.o
 *fill*         0x00202132        0xe 
 .rodata        0x00202140      0x25c drivers_audio/fsl_dmic.o
 *fill*         0x0020239c        0x4 
 .rodata        0x002023a0      0x260 drivers_audio/fsl_dmic_dma.o
 .rodata        0x00202600      0x44a drivers_audio/fsl_i2s.o
 *fill*         0x00202a4a        0x6 
 .rodata        0x00202a50      0x385 drivers_audio/fsl_i2s_dma.o
 *fill*         0x00202dd5        0xb 
 .rodata        0x00202de0      0x113 drivers_audio/fsl_inputmux.o
 *fill*         0x00202ef3        0xd 
 .rodata        0x00202f00      0x2d4 user/main.o
 *fill*         0x002031d4        0xc 
 .rodata        0x002031e0      0x2a0 utilities/fsl_debug_console.o
 .rodata        0x00203480       0x28 C:/usr/xtensa/XtDevTools/install/builds/RI-2019.1-win32/nxp_rt600_RI2019_newlib/xtensa-elf/arch/lib/\libxos.a(xos_thread.o)
                0x00203480                xos_blkon_idle
                0x00203484                xos_blkon_suspend
                0x00203488                xos_blkon_exited
                0x0020348c                xos_blkon_join
                0x00203490                xos_blkon_delay
                0x00203494                xos_blkon_event
                0x00203498                xos_blkon_condition
                0x0020349c                xos_blkon_mutex
                0x002034a0                xos_blkon_sem
                0x002034a4                xos_blkon_msgq
 .rodata        0x002034a8        0x4 C:/usr/xtensa/XtDevTools/install/builds/RI-2019.1-win32/nxp_rt600_RI2019_newlib/xtensa-elf/arch/lib/\libxos.a(xos_clib.o)
 *fill*         0x002034ac        0x4 
 .rodata        0x002034b0       0x30 C:/usr/xtensa/XtDevTools/install/builds/RI-2019.1-win32/nxp_rt600_RI2019_newlib/xtensa-elf/arch/lib/\libxos.a(xos_coproc_handler.o)
                0x002034b0                _xt_coproc_mask
                0x002034c0                _xt_coproc_sa_offset
 .rodata        0x002034e0        0x4 C:/usr/xtensa/XtDevTools/install/builds/RI-2019.1-win32/nxp_rt600_RI2019_newlib/xtensa-elf/lib/\libc.a(lib_a-impure.o)
                0x002034e0                _global_impure_ptr
 *fill*         0x002034e4        0xc 
 .rodata        0x002034f0      0x184 C:/usr/xtensa/XtDevTools/install/builds/RI-2019.1-win32/nxp_rt600_RI2019_newlib/xtensa-elf/lib/\libc.a(lib_a-vfiprintf.o)
 *fill*         0x00203674        0xc 
 .rodata        0x00203680      0x101 C:/usr/xtensa/XtDevTools/install/builds/RI-2019.1-win32/nxp_rt600_RI2019_newlib/xtensa-elf/lib/\libc.a(lib_a-ctype_.o)
                0x00203680                _ctype_
 *(SORT(.rodata.sort.*))
 *(SORT(.rodata.keepsort.*) .rodata.keep.*)
 *(.rodata.*)
 *fill*         0x00203781        0x3 
 .rodata.str1.4
                0x00203784        0x5 C:/usr/xtensa/XtDevTools/install/builds/RI-2019.1-win32/nxp_rt600_RI2019_newlib/xtensa-elf/arch/lib/\libxos.a(xos_start_main.o)
 *fill*         0x00203789        0x3 
 .rodata.str1.4
                0x0020378c       0x41 C:/usr/xtensa/XtDevTools/install/builds/RI-2019.1-win32/nxp_rt600_RI2019_newlib/xtensa-elf/arch/lib/\libxos.a(xos_thread.o)
                                         0x49 (size before relaxing)
 *fill*         0x002037cd        0x3 
 .rodata.str1.4
                0x002037d0        0x2 C:/usr/xtensa/XtDevTools/install/builds/RI-2019.1-win32/nxp_rt600_RI2019_newlib/xtensa-elf/arch/lib/\libxos.a(xos_clib.o)
 *fill*         0x002037d2        0x2 
 .rodata.str1.4
                0x002037d4       0x3d C:/usr/xtensa/XtDevTools/install/builds/RI-2019.1-win32/nxp_rt600_RI2019_newlib/xtensa-elf/lib/\libc.a(lib_a-assert.o)
                                         0x41 (size before relaxing)
 .rodata.str1.4
                0x00000000        0x2 C:/usr/xtensa/XtDevTools/install/builds/RI-2019.1-win32/nxp_rt600_RI2019_newlib/xtensa-elf/lib/\libc.a(lib_a-impure.o)
 *fill*         0x00203811        0x3 
 .rodata.str1.4
                0x00203814       0x2d C:/usr/xtensa/XtDevTools/install/builds/RI-2019.1-win32/nxp_rt600_RI2019_newlib/xtensa-elf/lib/\libc.a(lib_a-vfiprintf.o)
 *fill*         0x00203841        0x3 
 .rodata.str1.4
                0x00203844        0xc C:/usr/xtensa/XtDevTools/install/builds/RI-2019.1-win32/nxp_rt600_RI2019_newlib/xtensa-elf/lib/\libc.a(lib_a-locale.o)
                                         0x12 (size before relaxing)
 *(.gnu.linkonce.r.*)
 *(.rodata1)
                0x00203850                __XT_EXCEPTION_TABLE__ = ABSOLUTE (.)
 *(.xt_except_table)
 *(.gcc_except_table)
 *(.gnu.linkonce.e.*)
 *(.gnu.version_r)
 *(.eh_frame)
 .eh_frame      0x00203850        0x0 C:/usr/xtensa/XtDevTools/install/builds/RI-2019.1-win32/nxp_rt600_RI2019_newlib/xtensa-elf/lib/xcc/crtbegin.o
 .eh_frame      0x00203850        0x4 C:/usr/xtensa/XtDevTools/install/builds/RI-2019.1-win32/nxp_rt600_RI2019_newlib/xtensa-elf/lib/xcc/crtend.o
 *crtbegin.o(.ctors)
 .ctors         0x00203854        0x4 C:/usr/xtensa/XtDevTools/install/builds/RI-2019.1-win32/nxp_rt600_RI2019_newlib/xtensa-elf/lib/xcc/crtbegin.o
 *(EXCLUDE_FILE(*crtend.o) .ctors)
 *(SORT(.ctors.*))
 *(.ctors)
 .ctors         0x00203858        0x4 C:/usr/xtensa/XtDevTools/install/builds/RI-2019.1-win32/nxp_rt600_RI2019_newlib/xtensa-elf/lib/xcc/crtend.o
 *crtbegin.o(.dtors)
 .dtors         0x0020385c        0x4 C:/usr/xtensa/XtDevTools/install/builds/RI-2019.1-win32/nxp_rt600_RI2019_newlib/xtensa-elf/lib/xcc/crtbegin.o
 *(EXCLUDE_FILE(*crtend.o) .dtors)
 *(SORT(.dtors.*))
 *(.dtors)
 .dtors         0x00203860        0x4 C:/usr/xtensa/XtDevTools/install/builds/RI-2019.1-win32/nxp_rt600_RI2019_newlib/xtensa-elf/lib/xcc/crtend.o
                0x00203864                __XT_EXCEPTION_DESCS__ = ABSOLUTE (.)
 *(.xt_except_desc)
 *(.gnu.linkonce.h.*)
                0x00203864                __XT_EXCEPTION_DESCS_END__ = ABSOLUTE (.)
 *(.xt_except_desc_end)
 *(.dynamic)
 *(.gnu.version_d)
                0x00203864                . = ALIGN (0x4)
                0x00203864                _bss_table_start = ABSOLUTE (.)
                0x00203864        0x4 LONG 0x24000010 _dram0_bss_start
                0x00203868        0x4 LONG 0x24000010 _dram0_bss_end
                0x0020386c        0x4 LONG 0x217fb0 _bss_start
                0x00203870        0x4 LONG 0x21dc38 _bss_end
                0x00203874                _bss_table_end = ABSOLUTE (.)
                0x00203874                . = ALIGN (0x4)
                0x00203874                _rodata_end = ABSOLUTE (.)

.sram.text      0x00203874        0x0
                0x00203874                _sram_text_start = ABSOLUTE (.)
 *(.sram.literal .sram.text)
                0x00203874                . = ALIGN (0x4)
                0x00203874                _sram_text_end = ABSOLUTE (.)

.text           0x00203880    0x137b0
                0x00203880                _stext = .
                0x00203880                _text_start = ABSOLUTE (.)
 *(.entry.text)
 *(.init.literal)
 .init.literal  0x00203880        0x4 C:/usr/xtensa/XtDevTools/install/builds/RI-2019.1-win32/nxp_rt600_RI2019_newlib/xtensa-elf/lib/xcc/crtbegin.o
 .init.literal  0x00203884        0xc C:/usr/xtensa/XtDevTools/install/builds/RI-2019.1-win32/nxp_rt600_RI2019_newlib/xtensa-elf/lib/\libgdbio.a(libinit.o)
 .init.literal  0x00203890        0x4 C:/usr/xtensa/XtDevTools/install/builds/RI-2019.1-win32/nxp_rt600_RI2019_newlib/xtensa-elf/lib/xcc/crtend.o
 *(.init)
 .literal       0x00203894       0x28 C:/usr/xtensa/XtDevTools/install/builds/RI-2019.1-win32/nxp_rt600_RI2019_newlib/xtensa-elf/arch/lib/crt1-boards.o
                                         0x54 (size before relaxing)
 .literal       0x002038bc       0x18 C:/usr/xtensa/XtDevTools/install/builds/RI-2019.1-win32/nxp_rt600_RI2019_newlib/xtensa-elf/lib/xcc/crtbegin.o
                                         0x24 (size before relaxing)
 .literal       0x002038d4       0x30 MIMXRT685S/system_MIMXRT685S_dsp.o
                                         0x74 (size before relaxing)
 .literal       0x00203904        0x4 board/pin_mux.o
                                          0x8 (size before relaxing)
 .literal       0x00203908        0xc component/lists/generic_list.o
                                         0x10 (size before relaxing)
 .literal       0x00203914       0x54 component/serial_manager/serial_manager.o
                                        0x118 (size before relaxing)
 .literal       0x00203968       0x2c component/serial_manager/serial_port_uart.o
                                         0x90 (size before relaxing)
 .literal       0x00203994       0x3c component/uart/usart_adapter.o
                                         0xb4 (size before relaxing)
 .literal       0x002039d0       0x64 drivers/fsl_clock.o
                                        0x230 (size before relaxing)
 .literal       0x00203a34       0x14 drivers/fsl_common.o
                                         0x24 (size before relaxing)
 .literal       0x00203a48       0xd4 drivers/fsl_flexcomm.o
                                        0x168 (size before relaxing)
 .literal       0x00203b1c       0x30 drivers/fsl_gpio.o
                                         0x70 (size before relaxing)
 .literal       0x00203b4c       0x14 drivers/fsl_reset.o
                                         0xa8 (size before relaxing)
 .literal       0x00203b60       0xf4 drivers/fsl_usart.o
                                        0x1f8 (size before relaxing)
 .literal       0x00203c54      0x120 drivers_audio/fsl_dma.o
                                        0x2a4 (size before relaxing)
 .literal       0x00203d74       0x44 drivers_audio/fsl_dmic.o
                                         0xac (size before relaxing)
 .literal       0x00203db8       0x54 drivers_audio/fsl_dmic_dma.o
                                         0xf0 (size before relaxing)
 .literal       0x00203e0c       0xa8 drivers_audio/fsl_i2s.o
                                        0x1e4 (size before relaxing)
 .literal       0x00203eb4       0x80 drivers_audio/fsl_i2s_dma.o
                                        0x154 (size before relaxing)
 .literal       0x00203f34       0x18 drivers_audio/fsl_inputmux.o
                                         0x50 (size before relaxing)
 .literal       0x00203f4c        0x4 evkmimxrt685/board_hifi4.o
                                          0x8 (size before relaxing)
 .literal       0x00203f50      0x1b4 user/main.o
                                        0x4e0 (size before relaxing)
 .literal       0x00204104        0x0 user/user_pin_mux.o
                                         0x40 (size before relaxing)
 .literal       0x00204104       0x64 utilities/fsl_debug_console.o
                                        0x120 (size before relaxing)
 .literal       0x00204168        0x8 utilities/fsl_str.o
                                         0x10 (size before relaxing)
 .literal.xos_register_interrupt_handler
                0x00204170        0x8 C:/usr/xtensa/XtDevTools/install/builds/RI-2019.1-win32/nxp_rt600_RI2019_newlib/xtensa-elf/arch/lib/\libxos.a(xos.o)
 .literal.xos_int_unhandled
                0x00204178        0x4 C:/usr/xtensa/XtDevTools/install/builds/RI-2019.1-win32/nxp_rt600_RI2019_newlib/xtensa-elf/arch/lib/\libxos.a(xos.o)
                                          0x8 (size before relaxing)
 .literal.xos_unregister_interrupt_handler
                0x0020417c        0x4 C:/usr/xtensa/XtDevTools/install/builds/RI-2019.1-win32/nxp_rt600_RI2019_newlib/xtensa-elf/arch/lib/\libxos.a(xos.o)
                                          0x8 (size before relaxing)
 .literal.xos_register_hp_interrupt_handler
                0x00204180        0x4 C:/usr/xtensa/XtDevTools/install/builds/RI-2019.1-win32/nxp_rt600_RI2019_newlib/xtensa-elf/arch/lib/\libxos.a(xos.o)
                                          0x8 (size before relaxing)
 .literal.xos_interrupt_enable
                0x00204184        0x8 C:/usr/xtensa/XtDevTools/install/builds/RI-2019.1-win32/nxp_rt600_RI2019_newlib/xtensa-elf/arch/lib/\libxos.a(xos.o)
                                          0xc (size before relaxing)
 .literal.xos_interrupt_enabled
                0x0020418c        0x0 C:/usr/xtensa/XtDevTools/install/builds/RI-2019.1-win32/nxp_rt600_RI2019_newlib/xtensa-elf/arch/lib/\libxos.a(xos.o)
                                          0x4 (size before relaxing)
 .literal.xos_interrupt_disable
                0x0020418c        0x0 C:/usr/xtensa/XtDevTools/install/builds/RI-2019.1-win32/nxp_rt600_RI2019_newlib/xtensa-elf/arch/lib/\libxos.a(xos.o)
                                          0xc (size before relaxing)
 .literal.xos_interrupt_in_use
                0x0020418c        0x0 C:/usr/xtensa/XtDevTools/install/builds/RI-2019.1-win32/nxp_rt600_RI2019_newlib/xtensa-elf/arch/lib/\libxos.a(xos.o)
                                          0x8 (size before relaxing)
 .literal.xos_register_fatal_error_handler
                0x0020418c        0x4 C:/usr/xtensa/XtDevTools/install/builds/RI-2019.1-win32/nxp_rt600_RI2019_newlib/xtensa-elf/arch/lib/\libxos.a(xos.o)
 .literal.xos_fatal_error
                0x00204190        0x0 C:/usr/xtensa/XtDevTools/install/builds/RI-2019.1-win32/nxp_rt600_RI2019_newlib/xtensa-elf/arch/lib/\libxos.a(xos.o)
                                          0x8 (size before relaxing)
 .literal.xos_default_exception_handler
                0x00204190        0xc C:/usr/xtensa/XtDevTools/install/builds/RI-2019.1-win32/nxp_rt600_RI2019_newlib/xtensa-elf/arch/lib/\libxos.a(xos.o)
                                         0x18 (size before relaxing)
 .literal.xos_register_exception_handler
                0x0020419c        0x8 C:/usr/xtensa/XtDevTools/install/builds/RI-2019.1-win32/nxp_rt600_RI2019_newlib/xtensa-elf/arch/lib/\libxos.a(xos.o)
 .literal       0x002041a4       0x10 C:/usr/xtensa/XtDevTools/install/builds/RI-2019.1-win32/nxp_rt600_RI2019_newlib/xtensa-elf/arch/lib/\libxos.a(xos_exc_handler.o)
                                         0x1c (size before relaxing)
 .literal.xos_start_main
                0x002041b4       0x30 C:/usr/xtensa/XtDevTools/install/builds/RI-2019.1-win32/nxp_rt600_RI2019_newlib/xtensa-elf/arch/lib/\libxos.a(xos_start_main.o)
                                         0x68 (size before relaxing)
 .literal.xos_q_pop
                0x002041e4        0x0 C:/usr/xtensa/XtDevTools/install/builds/RI-2019.1-win32/nxp_rt600_RI2019_newlib/xtensa-elf/arch/lib/\libxos.a(xos_thread.o)
                                          0x4 (size before relaxing)
 .literal.xos_thread_create
                0x002041e4       0x28 C:/usr/xtensa/XtDevTools/install/builds/RI-2019.1-win32/nxp_rt600_RI2019_newlib/xtensa-elf/arch/lib/\libxos.a(xos_thread.o)
                                         0x50 (size before relaxing)
 .literal.xos_thread_delete
                0x0020420c        0x8 C:/usr/xtensa/XtDevTools/install/builds/RI-2019.1-win32/nxp_rt600_RI2019_newlib/xtensa-elf/arch/lib/\libxos.a(xos_thread.o)
                                         0x18 (size before relaxing)
 .literal.xos_init
                0x00204214       0x18 C:/usr/xtensa/XtDevTools/install/builds/RI-2019.1-win32/nxp_rt600_RI2019_newlib/xtensa-elf/arch/lib/\libxos.a(xos_thread.o)
                                         0x2c (size before relaxing)
 .literal.xos_init_done
                0x0020422c        0x0 C:/usr/xtensa/XtDevTools/install/builds/RI-2019.1-win32/nxp_rt600_RI2019_newlib/xtensa-elf/arch/lib/\libxos.a(xos_thread.o)
                                          0x4 (size before relaxing)
 .literal.xos_start
                0x0020422c        0xc C:/usr/xtensa/XtDevTools/install/builds/RI-2019.1-win32/nxp_rt600_RI2019_newlib/xtensa-elf/arch/lib/\libxos.a(xos_thread.o)
                                         0x50 (size before relaxing)
 .literal.xos_started
                0x00204238        0x0 C:/usr/xtensa/XtDevTools/install/builds/RI-2019.1-win32/nxp_rt600_RI2019_newlib/xtensa-elf/arch/lib/\libxos.a(xos_thread.o)
                                          0x4 (size before relaxing)
 .literal.xos_schedule
                0x00204238        0x0 C:/usr/xtensa/XtDevTools/install/builds/RI-2019.1-win32/nxp_rt600_RI2019_newlib/xtensa-elf/arch/lib/\libxos.a(xos_thread.o)
                                         0x10 (size before relaxing)
 .literal.xos_thread_yield
                0x00204238        0x8 C:/usr/xtensa/XtDevTools/install/builds/RI-2019.1-win32/nxp_rt600_RI2019_newlib/xtensa-elf/arch/lib/\libxos.a(xos_thread.o)
                                         0x18 (size before relaxing)
 .literal.xos_block
                0x00204240        0x4 C:/usr/xtensa/XtDevTools/install/builds/RI-2019.1-win32/nxp_rt600_RI2019_newlib/xtensa-elf/arch/lib/\libxos.a(xos_thread.o)
                                         0x24 (size before relaxing)
 .literal.xos_thread_wake
                0x00204244        0x0 C:/usr/xtensa/XtDevTools/install/builds/RI-2019.1-win32/nxp_rt600_RI2019_newlib/xtensa-elf/arch/lib/\libxos.a(xos_thread.o)
                                         0x18 (size before relaxing)
 .literal.xos_thread_set_priority
                0x00204244        0x0 C:/usr/xtensa/XtDevTools/install/builds/RI-2019.1-win32/nxp_rt600_RI2019_newlib/xtensa-elf/arch/lib/\libxos.a(xos_thread.o)
                                         0x20 (size before relaxing)
 .literal.xos_wake_queue
                0x00204244        0x0 C:/usr/xtensa/XtDevTools/install/builds/RI-2019.1-win32/nxp_rt600_RI2019_newlib/xtensa-elf/arch/lib/\libxos.a(xos_thread.o)
                                          0xc (size before relaxing)
 .literal.xos_thread_set_exit_handler
                0x00204244        0x4 C:/usr/xtensa/XtDevTools/install/builds/RI-2019.1-win32/nxp_rt600_RI2019_newlib/xtensa-elf/arch/lib/\libxos.a(xos_thread.o)
                                         0x10 (size before relaxing)
 .literal.xos_thread_exit
                0x00204248        0x0 C:/usr/xtensa/XtDevTools/install/builds/RI-2019.1-win32/nxp_rt600_RI2019_newlib/xtensa-elf/arch/lib/\libxos.a(xos_thread.o)
                                         0x20 (size before relaxing)
 .literal.xos_thread_join
                0x00204248        0x0 C:/usr/xtensa/XtDevTools/install/builds/RI-2019.1-win32/nxp_rt600_RI2019_newlib/xtensa-elf/arch/lib/\libxos.a(xos_thread.o)
                                         0x18 (size before relaxing)
 .literal.xos_thread_suspend
                0x00204248        0x0 C:/usr/xtensa/XtDevTools/install/builds/RI-2019.1-win32/nxp_rt600_RI2019_newlib/xtensa-elf/arch/lib/\libxos.a(xos_thread.o)
                                         0x24 (size before relaxing)
 .literal.xos_thread_resume
                0x00204248        0x0 C:/usr/xtensa/XtDevTools/install/builds/RI-2019.1-win32/nxp_rt600_RI2019_newlib/xtensa-elf/arch/lib/\libxos.a(xos_thread.o)
                                         0x10 (size before relaxing)
 .literal.xos_thread_abort
                0x00204248        0x8 C:/usr/xtensa/XtDevTools/install/builds/RI-2019.1-win32/nxp_rt600_RI2019_newlib/xtensa-elf/arch/lib/\libxos.a(xos_thread.o)
                                         0x40 (size before relaxing)
 .literal.xos_thread_get_state
                0x00204250        0x0 C:/usr/xtensa/XtDevTools/install/builds/RI-2019.1-win32/nxp_rt600_RI2019_newlib/xtensa-elf/arch/lib/\libxos.a(xos_thread.o)
                                          0xc (size before relaxing)
 .literal.xos_preemption_disable
                0x00204250        0x4 C:/usr/xtensa/XtDevTools/install/builds/RI-2019.1-win32/nxp_rt600_RI2019_newlib/xtensa-elf/arch/lib/\libxos.a(xos_thread.o)
 .literal.xos_preemption_enable
                0x00204254        0x0 C:/usr/xtensa/XtDevTools/install/builds/RI-2019.1-win32/nxp_rt600_RI2019_newlib/xtensa-elf/arch/lib/\libxos.a(xos_thread.o)
                                         0x10 (size before relaxing)
 .literal.xos_thread_mutex_add
                0x00204254        0x0 C:/usr/xtensa/XtDevTools/install/builds/RI-2019.1-win32/nxp_rt600_RI2019_newlib/xtensa-elf/arch/lib/\libxos.a(xos_thread.o)
                                          0x4 (size before relaxing)
 .literal.xos_thread_mutex_rem
                0x00204254        0x0 C:/usr/xtensa/XtDevTools/install/builds/RI-2019.1-win32/nxp_rt600_RI2019_newlib/xtensa-elf/arch/lib/\libxos.a(xos_thread.o)
                                          0x4 (size before relaxing)
 .literal.xos_thread_mutex_bump
                0x00204254        0x0 C:/usr/xtensa/XtDevTools/install/builds/RI-2019.1-win32/nxp_rt600_RI2019_newlib/xtensa-elf/arch/lib/\libxos.a(xos_thread.o)
                                          0x4 (size before relaxing)
 .literal.xos_q_move
                0x00204254        0x0 C:/usr/xtensa/XtDevTools/install/builds/RI-2019.1-win32/nxp_rt600_RI2019_newlib/xtensa-elf/arch/lib/\libxos.a(xos_thread.o)
                                         0x10 (size before relaxing)
 .literal.xos_switch_to
                0x00204254        0x4 C:/usr/xtensa/XtDevTools/install/builds/RI-2019.1-win32/nxp_rt600_RI2019_newlib/xtensa-elf/arch/lib/\libxos.a(xos_thread.o)
                                          0x8 (size before relaxing)
 .literal.xos_tick_handler
                0x00204258        0x8 C:/usr/xtensa/XtDevTools/install/builds/RI-2019.1-win32/nxp_rt600_RI2019_newlib/xtensa-elf/arch/lib/\libxos.a(xos_timer.o)
                                         0x20 (size before relaxing)
 .literal.xos_start_system_timer
                0x00204260        0x0 C:/usr/xtensa/XtDevTools/install/builds/RI-2019.1-win32/nxp_rt600_RI2019_newlib/xtensa-elf/arch/lib/\libxos.a(xos_timer.o)
                                         0x1c (size before relaxing)
 .literal.xos_get_system_timer_num
                0x00204260        0x0 C:/usr/xtensa/XtDevTools/install/builds/RI-2019.1-win32/nxp_rt600_RI2019_newlib/xtensa-elf/arch/lib/\libxos.a(xos_timer.o)
                                          0x4 (size before relaxing)
 .literal.xos_timer_start
                0x00204260        0x0 C:/usr/xtensa/XtDevTools/install/builds/RI-2019.1-win32/nxp_rt600_RI2019_newlib/xtensa-elf/arch/lib/\libxos.a(xos_timer.o)
                                         0x10 (size before relaxing)
 .literal.xos_timer_stop
                0x00204260        0xc C:/usr/xtensa/XtDevTools/install/builds/RI-2019.1-win32/nxp_rt600_RI2019_newlib/xtensa-elf/arch/lib/\libxos.a(xos_timer.o)
                                         0x1c (size before relaxing)
 .literal.xos_timer_restart
                0x0020426c        0x0 C:/usr/xtensa/XtDevTools/install/builds/RI-2019.1-win32/nxp_rt600_RI2019_newlib/xtensa-elf/arch/lib/\libxos.a(xos_timer.o)
                                         0x10 (size before relaxing)
 .literal.xos_timer_set_period
                0x0020426c        0x0 C:/usr/xtensa/XtDevTools/install/builds/RI-2019.1-win32/nxp_rt600_RI2019_newlib/xtensa-elf/arch/lib/\libxos.a(xos_timer.o)
                                          0x4 (size before relaxing)
 .literal.xos_thread_sleep
                0x0020426c        0x4 C:/usr/xtensa/XtDevTools/install/builds/RI-2019.1-win32/nxp_rt600_RI2019_newlib/xtensa-elf/arch/lib/\libxos.a(xos_timer.o)
                                         0x24 (size before relaxing)
 .literal.xos_timer_wait
                0x00204270        0x0 C:/usr/xtensa/XtDevTools/install/builds/RI-2019.1-win32/nxp_rt600_RI2019_newlib/xtensa-elf/arch/lib/\libxos.a(xos_timer.o)
                                         0x14 (size before relaxing)
 .literal.thread_wakeup_cb
                0x00204270        0x0 C:/usr/xtensa/XtDevTools/install/builds/RI-2019.1-win32/nxp_rt600_RI2019_newlib/xtensa-elf/arch/lib/\libxos.a(xos_timer.o)
                                          0x8 (size before relaxing)
 .literal.xos_insert_timer
                0x00204270        0x0 C:/usr/xtensa/XtDevTools/install/builds/RI-2019.1-win32/nxp_rt600_RI2019_newlib/xtensa-elf/arch/lib/\libxos.a(xos_timer.o)
                                         0x18 (size before relaxing)
 .literal       0x00204270       0x40 C:/usr/xtensa/XtDevTools/install/builds/RI-2019.1-win32/nxp_rt600_RI2019_newlib/xtensa-elf/arch/lib/\libxos.a(xos_handlers.o)
                                         0xd8 (size before relaxing)
 .literal.__malloc_lock
                0x002042b0        0x4 C:/usr/xtensa/XtDevTools/install/builds/RI-2019.1-win32/nxp_rt600_RI2019_newlib/xtensa-elf/arch/lib/\libxos.a(xos_clib.o)
                                          0xc (size before relaxing)
 .literal.__malloc_unlock
                0x002042b4        0x0 C:/usr/xtensa/XtDevTools/install/builds/RI-2019.1-win32/nxp_rt600_RI2019_newlib/xtensa-elf/arch/lib/\libxos.a(xos_clib.o)
                                          0xc (size before relaxing)
 .literal.__env_lock
                0x002042b4        0x0 C:/usr/xtensa/XtDevTools/install/builds/RI-2019.1-win32/nxp_rt600_RI2019_newlib/xtensa-elf/arch/lib/\libxos.a(xos_clib.o)
                                          0x4 (size before relaxing)
 .literal.__env_unlock
                0x002042b4        0x0 C:/usr/xtensa/XtDevTools/install/builds/RI-2019.1-win32/nxp_rt600_RI2019_newlib/xtensa-elf/arch/lib/\libxos.a(xos_clib.o)
                                          0x4 (size before relaxing)
 .literal._sbrk_r
                0x002042b4        0x8 C:/usr/xtensa/XtDevTools/install/builds/RI-2019.1-win32/nxp_rt600_RI2019_newlib/xtensa-elf/arch/lib/\libxos.a(xos_clib.o)
                                          0xc (size before relaxing)
 .literal.xos_clib_init
                0x002042bc        0x0 C:/usr/xtensa/XtDevTools/install/builds/RI-2019.1-win32/nxp_rt600_RI2019_newlib/xtensa-elf/arch/lib/\libxos.a(xos_clib.o)
                                          0x8 (size before relaxing)
 .literal.xos_clib_thread_init
                0x002042bc       0x18 C:/usr/xtensa/XtDevTools/install/builds/RI-2019.1-win32/nxp_rt600_RI2019_newlib/xtensa-elf/arch/lib/\libxos.a(xos_clib.o)
                                         0x28 (size before relaxing)
 .literal.xos_clib_thread_cleanup
                0x002042d4        0x0 C:/usr/xtensa/XtDevTools/install/builds/RI-2019.1-win32/nxp_rt600_RI2019_newlib/xtensa-elf/arch/lib/\libxos.a(xos_clib.o)
                                          0x8 (size before relaxing)
 .literal       0x002042d4        0xc C:/usr/xtensa/XtDevTools/install/builds/RI-2019.1-win32/nxp_rt600_RI2019_newlib/xtensa-elf/arch/lib/\libxos.a(xos_coproc_handler.o)
                                         0x1c (size before relaxing)
 .literal.xos_mutex_create
                0x002042e0        0x0 C:/usr/xtensa/XtDevTools/install/builds/RI-2019.1-win32/nxp_rt600_RI2019_newlib/xtensa-elf/arch/lib/\libxos.a(xos_mutex.o)
                                          0x4 (size before relaxing)
 .literal.xos_mutex_delete
                0x002042e0        0xc C:/usr/xtensa/XtDevTools/install/builds/RI-2019.1-win32/nxp_rt600_RI2019_newlib/xtensa-elf/arch/lib/\libxos.a(xos_mutex.o)
                                         0x34 (size before relaxing)
 .literal.xos_mutex_lock
                0x002042ec        0x0 C:/usr/xtensa/XtDevTools/install/builds/RI-2019.1-win32/nxp_rt600_RI2019_newlib/xtensa-elf/arch/lib/\libxos.a(xos_mutex.o)
                                         0x28 (size before relaxing)
 .literal.xos_mutex_lock_timeout
                0x002042ec        0x4 C:/usr/xtensa/XtDevTools/install/builds/RI-2019.1-win32/nxp_rt600_RI2019_newlib/xtensa-elf/arch/lib/\libxos.a(xos_mutex.o)
                                         0x38 (size before relaxing)
 .literal.xos_mutex_unlock
                0x002042f0        0x0 C:/usr/xtensa/XtDevTools/install/builds/RI-2019.1-win32/nxp_rt600_RI2019_newlib/xtensa-elf/arch/lib/\libxos.a(xos_mutex.o)
                                         0x2c (size before relaxing)
 .literal.xos_mutex_trylock
                0x002042f0        0x4 C:/usr/xtensa/XtDevTools/install/builds/RI-2019.1-win32/nxp_rt600_RI2019_newlib/xtensa-elf/arch/lib/\libxos.a(xos_mutex.o)
                                         0x20 (size before relaxing)
 .literal.mutex_wakeup_cb
                0x002042f4        0x4 C:/usr/xtensa/XtDevTools/install/builds/RI-2019.1-win32/nxp_rt600_RI2019_newlib/xtensa-elf/arch/lib/\libxos.a(xos_mutex.o)
                                          0xc (size before relaxing)
 .literal.xos_once_init
                0x002042f8        0x4 C:/usr/xtensa/XtDevTools/install/builds/RI-2019.1-win32/nxp_rt600_RI2019_newlib/xtensa-elf/arch/lib/\libxos.a(xos_once.o)
                                          0x8 (size before relaxing)
 .literal.xos_once
                0x002042fc        0x0 C:/usr/xtensa/XtDevTools/install/builds/RI-2019.1-win32/nxp_rt600_RI2019_newlib/xtensa-elf/arch/lib/\libxos.a(xos_once.o)
                                         0x18 (size before relaxing)
 .literal.xos_system_timer_get
                0x002042fc        0x4 C:/usr/xtensa/XtDevTools/install/builds/RI-2019.1-win32/nxp_rt600_RI2019_newlib/xtensa-elf/arch/lib/\libxos.a(xos_system_timer.o)
                                          0xc (size before relaxing)
 .literal.xos_system_timer_set
                0x00204300        0x0 C:/usr/xtensa/XtDevTools/install/builds/RI-2019.1-win32/nxp_rt600_RI2019_newlib/xtensa-elf/arch/lib/\libxos.a(xos_system_timer.o)
                                          0xc (size before relaxing)
 .literal.xos_system_timer_pending
                0x00204300        0x4 C:/usr/xtensa/XtDevTools/install/builds/RI-2019.1-win32/nxp_rt600_RI2019_newlib/xtensa-elf/arch/lib/\libxos.a(xos_system_timer.o)
 .literal.xos_system_timer_select
                0x00204304        0xc C:/usr/xtensa/XtDevTools/install/builds/RI-2019.1-win32/nxp_rt600_RI2019_newlib/xtensa-elf/arch/lib/\libxos.a(xos_system_timer.o)
                                         0x18 (size before relaxing)
 .literal.xos_system_timer_init
                0x00204310        0x4 C:/usr/xtensa/XtDevTools/install/builds/RI-2019.1-win32/nxp_rt600_RI2019_newlib/xtensa-elf/arch/lib/\libxos.a(xos_system_timer.o)
                                         0x14 (size before relaxing)
 .literal.timer_intr_handler
                0x00204314        0x0 C:/usr/xtensa/XtDevTools/install/builds/RI-2019.1-win32/nxp_rt600_RI2019_newlib/xtensa-elf/arch/lib/\libxos.a(xos_system_timer.o)
                                          0x4 (size before relaxing)
 .literal.__clibrary_init
                0x00204314        0x8 C:/usr/xtensa/XtDevTools/install/builds/RI-2019.1-win32/nxp_rt600_RI2019_newlib/xtensa-elf/lib/\libc.a(clibrary_init.o)
                                          0xc (size before relaxing)
 .literal.__assert_func
                0x0020431c        0xc C:/usr/xtensa/XtDevTools/install/builds/RI-2019.1-win32/nxp_rt600_RI2019_newlib/xtensa-elf/lib/\libc.a(lib_a-assert.o)
                                         0x1c (size before relaxing)
 .literal.__assert
                0x00204328        0x0 C:/usr/xtensa/XtDevTools/install/builds/RI-2019.1-win32/nxp_rt600_RI2019_newlib/xtensa-elf/lib/\libc.a(lib_a-assert.o)
                                          0x4 (size before relaxing)
 .literal.exit  0x00204328        0x4 C:/usr/xtensa/XtDevTools/install/builds/RI-2019.1-win32/nxp_rt600_RI2019_newlib/xtensa-elf/lib/\libc.a(lib_a-exit.o)
                                          0xc (size before relaxing)
 .literal._fiprintf_r
                0x0020432c        0x0 C:/usr/xtensa/XtDevTools/install/builds/RI-2019.1-win32/nxp_rt600_RI2019_newlib/xtensa-elf/lib/\libc.a(lib_a-fiprintf.o)
                                          0x4 (size before relaxing)
 .literal.fiprintf
                0x0020432c        0x0 C:/usr/xtensa/XtDevTools/install/builds/RI-2019.1-win32/nxp_rt600_RI2019_newlib/xtensa-elf/lib/\libc.a(lib_a-fiprintf.o)
                                          0x8 (size before relaxing)
 .literal.malloc
                0x0020432c        0x0 C:/usr/xtensa/XtDevTools/install/builds/RI-2019.1-win32/nxp_rt600_RI2019_newlib/xtensa-elf/lib/\libc.a(lib_a-malloc.o)
                                          0x8 (size before relaxing)
 .literal.free  0x0020432c        0x0 C:/usr/xtensa/XtDevTools/install/builds/RI-2019.1-win32/nxp_rt600_RI2019_newlib/xtensa-elf/lib/\libc.a(lib_a-malloc.o)
                                          0x8 (size before relaxing)
 .literal._malloc_r
                0x0020432c       0x10 C:/usr/xtensa/XtDevTools/install/builds/RI-2019.1-win32/nxp_rt600_RI2019_newlib/xtensa-elf/lib/\libc.a(lib_a-mallocr.o)
                                         0x58 (size before relaxing)
 .literal.cleanup_glue
                0x0020433c        0x0 C:/usr/xtensa/XtDevTools/install/builds/RI-2019.1-win32/nxp_rt600_RI2019_newlib/xtensa-elf/lib/\libc.a(lib_a-reent.o)
                                          0x4 (size before relaxing)
 .literal._reclaim_reent
                0x0020433c        0x0 C:/usr/xtensa/XtDevTools/install/builds/RI-2019.1-win32/nxp_rt600_RI2019_newlib/xtensa-elf/lib/\libc.a(lib_a-reent.o)
                                         0x1c (size before relaxing)
 .literal._wrapup_reent
                0x0020433c        0x0 C:/usr/xtensa/XtDevTools/install/builds/RI-2019.1-win32/nxp_rt600_RI2019_newlib/xtensa-elf/lib/\libc.a(lib_a-reent.o)
                                          0x4 (size before relaxing)
 .literal.strlen
                0x0020433c        0x4 C:/usr/xtensa/XtDevTools/install/builds/RI-2019.1-win32/nxp_rt600_RI2019_newlib/xtensa-elf/lib/\libc.a(lib_a-strlen.o)
                                          0xc (size before relaxing)
 .literal._strtoul_r
                0x00204340        0x4 C:/usr/xtensa/XtDevTools/install/builds/RI-2019.1-win32/nxp_rt600_RI2019_newlib/xtensa-elf/lib/\libc.a(lib_a-strtoul.o)
 .literal.strtoul
                0x00204344        0x0 C:/usr/xtensa/XtDevTools/install/builds/RI-2019.1-win32/nxp_rt600_RI2019_newlib/xtensa-elf/lib/\libc.a(lib_a-strtoul.o)
                                          0x8 (size before relaxing)
 .literal.__sprint_r
                0x00204344        0x0 C:/usr/xtensa/XtDevTools/install/builds/RI-2019.1-win32/nxp_rt600_RI2019_newlib/xtensa-elf/lib/\libc.a(lib_a-vfiprintf.o)
                                          0x8 (size before relaxing)
 .literal.__sbprintf
                0x00204344        0x0 C:/usr/xtensa/XtDevTools/install/builds/RI-2019.1-win32/nxp_rt600_RI2019_newlib/xtensa-elf/lib/\libc.a(lib_a-vfiprintf.o)
                                          0x8 (size before relaxing)
 .literal.vfiprintf
                0x00204344        0x0 C:/usr/xtensa/XtDevTools/install/builds/RI-2019.1-win32/nxp_rt600_RI2019_newlib/xtensa-elf/lib/\libc.a(lib_a-vfiprintf.o)
                                          0x8 (size before relaxing)
 .literal._vfiprintf_r
                0x00204344       0x14 C:/usr/xtensa/XtDevTools/install/builds/RI-2019.1-win32/nxp_rt600_RI2019_newlib/xtensa-elf/lib/\libc.a(lib_a-vfiprintf.o)
                                         0x78 (size before relaxing)
 .literal.__swsetup_r
                0x00204358        0x0 C:/usr/xtensa/XtDevTools/install/builds/RI-2019.1-win32/nxp_rt600_RI2019_newlib/xtensa-elf/lib/\libc.a(lib_a-wsetup.o)
                                         0x10 (size before relaxing)
 .literal._atexit
                0x00204358        0x0 C:/usr/xtensa/XtDevTools/install/builds/RI-2019.1-win32/nxp_rt600_RI2019_newlib/xtensa-elf/lib/\libc.a(_atexit.o)
                                          0x4 (size before relaxing)
 .literal.__call_exitprocs
                0x00204358        0x4 C:/usr/xtensa/XtDevTools/install/builds/RI-2019.1-win32/nxp_rt600_RI2019_newlib/xtensa-elf/lib/\libc.a(lib_a-__call_atexit.o)
                                          0xc (size before relaxing)
 .literal.abort
                0x0020435c        0x0 C:/usr/xtensa/XtDevTools/install/builds/RI-2019.1-win32/nxp_rt600_RI2019_newlib/xtensa-elf/lib/\libc.a(lib_a-abort.o)
                                          0x8 (size before relaxing)
 .literal.__sflush_r
                0x0020435c        0x4 C:/usr/xtensa/XtDevTools/install/builds/RI-2019.1-win32/nxp_rt600_RI2019_newlib/xtensa-elf/lib/\libc.a(lib_a-fflush.o)
                                          0xc (size before relaxing)
 .literal._fflush_r
                0x00204360        0x0 C:/usr/xtensa/XtDevTools/install/builds/RI-2019.1-win32/nxp_rt600_RI2019_newlib/xtensa-elf/lib/\libc.a(lib_a-fflush.o)
                                          0x8 (size before relaxing)
 .literal.fflush
                0x00204360        0x4 C:/usr/xtensa/XtDevTools/install/builds/RI-2019.1-win32/nxp_rt600_RI2019_newlib/xtensa-elf/lib/\libc.a(lib_a-fflush.o)
                                         0x14 (size before relaxing)
 .literal.__sfmoreglue
                0x00204364        0x0 C:/usr/xtensa/XtDevTools/install/builds/RI-2019.1-win32/nxp_rt600_RI2019_newlib/xtensa-elf/lib/\libc.a(lib_a-findfp.o)
                                          0x8 (size before relaxing)
 .literal.__sfp
                0x00204364        0x0 C:/usr/xtensa/XtDevTools/install/builds/RI-2019.1-win32/nxp_rt600_RI2019_newlib/xtensa-elf/lib/\libc.a(lib_a-findfp.o)
                                         0x1c (size before relaxing)
 .literal._cleanup_r
                0x00204364        0x4 C:/usr/xtensa/XtDevTools/install/builds/RI-2019.1-win32/nxp_rt600_RI2019_newlib/xtensa-elf/lib/\libc.a(lib_a-findfp.o)
                                          0x8 (size before relaxing)
 .literal._cleanup
                0x00204368        0x0 C:/usr/xtensa/XtDevTools/install/builds/RI-2019.1-win32/nxp_rt600_RI2019_newlib/xtensa-elf/lib/\libc.a(lib_a-findfp.o)
                                          0x8 (size before relaxing)
 .literal.__sinit
                0x00204368       0x14 C:/usr/xtensa/XtDevTools/install/builds/RI-2019.1-win32/nxp_rt600_RI2019_newlib/xtensa-elf/lib/\libc.a(lib_a-findfp.o)
                                         0x34 (size before relaxing)
 .literal.__fp_lock_all
                0x0020437c        0x4 C:/usr/xtensa/XtDevTools/install/builds/RI-2019.1-win32/nxp_rt600_RI2019_newlib/xtensa-elf/lib/\libc.a(lib_a-findfp.o)
                                         0x10 (size before relaxing)
 .literal.__fp_unlock_all
                0x00204380        0x4 C:/usr/xtensa/XtDevTools/install/builds/RI-2019.1-win32/nxp_rt600_RI2019_newlib/xtensa-elf/lib/\libc.a(lib_a-findfp.o)
                                         0x10 (size before relaxing)
 .literal._fputwc_r
                0x00204384        0x0 C:/usr/xtensa/XtDevTools/install/builds/RI-2019.1-win32/nxp_rt600_RI2019_newlib/xtensa-elf/lib/\libc.a(lib_a-fputwc.o)
                                         0x14 (size before relaxing)
 .literal.fputwc
                0x00204384        0x0 C:/usr/xtensa/XtDevTools/install/builds/RI-2019.1-win32/nxp_rt600_RI2019_newlib/xtensa-elf/lib/\libc.a(lib_a-fputwc.o)
                                          0xc (size before relaxing)
 .literal._free_r
                0x00204384        0x4 C:/usr/xtensa/XtDevTools/install/builds/RI-2019.1-win32/nxp_rt600_RI2019_newlib/xtensa-elf/lib/\libc.a(lib_a-freer.o)
                                         0x1c (size before relaxing)
 .literal._malloc_trim_r
                0x00204388        0x8 C:/usr/xtensa/XtDevTools/install/builds/RI-2019.1-win32/nxp_rt600_RI2019_newlib/xtensa-elf/lib/\libc.a(lib_a-freer.o)
                                         0x38 (size before relaxing)
 .literal.__sfvwrite_r
                0x00204390        0x4 C:/usr/xtensa/XtDevTools/install/builds/RI-2019.1-win32/nxp_rt600_RI2019_newlib/xtensa-elf/lib/\libc.a(lib_a-fvwrite.o)
                                         0x3c (size before relaxing)
 .literal._setlocale_r
                0x00204394        0xc C:/usr/xtensa/XtDevTools/install/builds/RI-2019.1-win32/nxp_rt600_RI2019_newlib/xtensa-elf/lib/\libc.a(lib_a-locale.o)
                                         0x1c (size before relaxing)
 .literal.__locale_charset
                0x002043a0        0x4 C:/usr/xtensa/XtDevTools/install/builds/RI-2019.1-win32/nxp_rt600_RI2019_newlib/xtensa-elf/lib/\libc.a(lib_a-locale.o)
 .literal.__locale_mb_cur_max
                0x002043a4        0x4 C:/usr/xtensa/XtDevTools/install/builds/RI-2019.1-win32/nxp_rt600_RI2019_newlib/xtensa-elf/lib/\libc.a(lib_a-locale.o)
 .literal.__locale_msgcharset
                0x002043a8        0x4 C:/usr/xtensa/XtDevTools/install/builds/RI-2019.1-win32/nxp_rt600_RI2019_newlib/xtensa-elf/lib/\libc.a(lib_a-locale.o)
 .literal.__locale_cjk_lang
                0x002043ac        0x4 C:/usr/xtensa/XtDevTools/install/builds/RI-2019.1-win32/nxp_rt600_RI2019_newlib/xtensa-elf/lib/\libc.a(lib_a-locale.o)
 .literal._localeconv_r
                0x002043b0        0x4 C:/usr/xtensa/XtDevTools/install/builds/RI-2019.1-win32/nxp_rt600_RI2019_newlib/xtensa-elf/lib/\libc.a(lib_a-locale.o)
 .literal.setlocale
                0x002043b4        0x0 C:/usr/xtensa/XtDevTools/install/builds/RI-2019.1-win32/nxp_rt600_RI2019_newlib/xtensa-elf/lib/\libc.a(lib_a-locale.o)
                                          0x8 (size before relaxing)
 .literal.localeconv
                0x002043b4        0x0 C:/usr/xtensa/XtDevTools/install/builds/RI-2019.1-win32/nxp_rt600_RI2019_newlib/xtensa-elf/lib/\libc.a(lib_a-locale.o)
                                          0x8 (size before relaxing)
 .literal.__smakebuf_r
                0x002043b4        0x4 C:/usr/xtensa/XtDevTools/install/builds/RI-2019.1-win32/nxp_rt600_RI2019_newlib/xtensa-elf/lib/\libc.a(lib_a-makebuf.o)
                                         0x1c (size before relaxing)
 .literal.memchr
                0x002043b8        0x8 C:/usr/xtensa/XtDevTools/install/builds/RI-2019.1-win32/nxp_rt600_RI2019_newlib/xtensa-elf/lib/\libc.a(lib_a-memchr.o)
 .literal._realloc_r
                0x002043c0        0x0 C:/usr/xtensa/XtDevTools/install/builds/RI-2019.1-win32/nxp_rt600_RI2019_newlib/xtensa-elf/lib/\libc.a(lib_a-reallocr.o)
                                         0x48 (size before relaxing)
 .literal._init_signal_r
                0x002043c0        0x0 C:/usr/xtensa/XtDevTools/install/builds/RI-2019.1-win32/nxp_rt600_RI2019_newlib/xtensa-elf/lib/\libc.a(lib_a-signal.o)
                                          0x4 (size before relaxing)
 .literal._signal_r
                0x002043c0        0x0 C:/usr/xtensa/XtDevTools/install/builds/RI-2019.1-win32/nxp_rt600_RI2019_newlib/xtensa-elf/lib/\libc.a(lib_a-signal.o)
                                          0x4 (size before relaxing)
 .literal._raise_r
                0x002043c0        0x0 C:/usr/xtensa/XtDevTools/install/builds/RI-2019.1-win32/nxp_rt600_RI2019_newlib/xtensa-elf/lib/\libc.a(lib_a-signal.o)
                                          0x8 (size before relaxing)
 .literal.__sigtramp_r
                0x002043c0        0x0 C:/usr/xtensa/XtDevTools/install/builds/RI-2019.1-win32/nxp_rt600_RI2019_newlib/xtensa-elf/lib/\libc.a(lib_a-signal.o)
                                          0x4 (size before relaxing)
 .literal.raise
                0x002043c0        0x0 C:/usr/xtensa/XtDevTools/install/builds/RI-2019.1-win32/nxp_rt600_RI2019_newlib/xtensa-elf/lib/\libc.a(lib_a-signal.o)
                                          0x8 (size before relaxing)
 .literal.signal
                0x002043c0        0x0 C:/usr/xtensa/XtDevTools/install/builds/RI-2019.1-win32/nxp_rt600_RI2019_newlib/xtensa-elf/lib/\libc.a(lib_a-signal.o)
                                          0x8 (size before relaxing)
 .literal._init_signal
                0x002043c0        0x0 C:/usr/xtensa/XtDevTools/install/builds/RI-2019.1-win32/nxp_rt600_RI2019_newlib/xtensa-elf/lib/\libc.a(lib_a-signal.o)
                                          0x8 (size before relaxing)
 .literal.__sigtramp
                0x002043c0        0x0 C:/usr/xtensa/XtDevTools/install/builds/RI-2019.1-win32/nxp_rt600_RI2019_newlib/xtensa-elf/lib/\libc.a(lib_a-signal.o)
                                          0x8 (size before relaxing)
 .literal.__sread
                0x002043c0        0x0 C:/usr/xtensa/XtDevTools/install/builds/RI-2019.1-win32/nxp_rt600_RI2019_newlib/xtensa-elf/lib/\libc.a(lib_a-stdio.o)
                                          0x8 (size before relaxing)
 .literal.__swrite
                0x002043c0        0x0 C:/usr/xtensa/XtDevTools/install/builds/RI-2019.1-win32/nxp_rt600_RI2019_newlib/xtensa-elf/lib/\libc.a(lib_a-stdio.o)
                                          0xc (size before relaxing)
 .literal.__sseek
                0x002043c0        0x0 C:/usr/xtensa/XtDevTools/install/builds/RI-2019.1-win32/nxp_rt600_RI2019_newlib/xtensa-elf/lib/\libc.a(lib_a-stdio.o)
                                          0xc (size before relaxing)
 .literal.__sclose
                0x002043c0        0x0 C:/usr/xtensa/XtDevTools/install/builds/RI-2019.1-win32/nxp_rt600_RI2019_newlib/xtensa-elf/lib/\libc.a(lib_a-stdio.o)
                                          0x4 (size before relaxing)
 .literal.strcmp
                0x002043c0        0x4 C:/usr/xtensa/XtDevTools/install/builds/RI-2019.1-win32/nxp_rt600_RI2019_newlib/xtensa-elf/lib/\libc.a(lib_a-strcmp.o)
                                         0x18 (size before relaxing)
 .literal.__swbuf_r
                0x002043c4        0x0 C:/usr/xtensa/XtDevTools/install/builds/RI-2019.1-win32/nxp_rt600_RI2019_newlib/xtensa-elf/lib/\libc.a(lib_a-wbuf.o)
                                         0x18 (size before relaxing)
 .literal.__swbuf
                0x002043c4        0x0 C:/usr/xtensa/XtDevTools/install/builds/RI-2019.1-win32/nxp_rt600_RI2019_newlib/xtensa-elf/lib/\libc.a(lib_a-wbuf.o)
                                          0x8 (size before relaxing)
 .literal._wcrtomb_r
                0x002043c4        0x4 C:/usr/xtensa/XtDevTools/install/builds/RI-2019.1-win32/nxp_rt600_RI2019_newlib/xtensa-elf/lib/\libc.a(lib_a-wcrtomb.o)
                                          0xc (size before relaxing)
 .literal.wcrtomb
                0x002043c8        0x0 C:/usr/xtensa/XtDevTools/install/builds/RI-2019.1-win32/nxp_rt600_RI2019_newlib/xtensa-elf/lib/\libc.a(lib_a-wcrtomb.o)
                                         0x10 (size before relaxing)
 .literal._wctomb_r
                0x002043c8        0x0 C:/usr/xtensa/XtDevTools/install/builds/RI-2019.1-win32/nxp_rt600_RI2019_newlib/xtensa-elf/lib/\libc.a(lib_a-wctomb_r.o)
                                          0x8 (size before relaxing)
 .literal._isatty_r
                0x002043c8        0x0 C:/usr/xtensa/XtDevTools/install/builds/RI-2019.1-win32/nxp_rt600_RI2019_newlib/xtensa-elf/lib/\libc.a(isatty.o)
                                          0x8 (size before relaxing)
 .literal._fclose_r
                0x002043c8        0x0 C:/usr/xtensa/XtDevTools/install/builds/RI-2019.1-win32/nxp_rt600_RI2019_newlib/xtensa-elf/lib/\libc.a(lib_a-fclose.o)
                                         0x1c (size before relaxing)
 .literal.fclose
                0x002043c8        0x0 C:/usr/xtensa/XtDevTools/install/builds/RI-2019.1-win32/nxp_rt600_RI2019_newlib/xtensa-elf/lib/\libc.a(lib_a-fclose.o)
                                          0x8 (size before relaxing)
 .literal       0x002043c8        0x4 C:/usr/xtensa/XtDevTools/install/builds/RI-2019.1-win32/nxp_rt600_RI2019_newlib/xtensa-elf/lib/\libgdbio.a(close.o)
                                         0x14 (size before relaxing)
 .literal       0x002043cc        0x0 C:/usr/xtensa/XtDevTools/install/builds/RI-2019.1-win32/nxp_rt600_RI2019_newlib/xtensa-elf/lib/\libgdbio.a(fstat.o)
                                         0x4c (size before relaxing)
 .literal       0x002043cc        0x0 C:/usr/xtensa/XtDevTools/install/builds/RI-2019.1-win32/nxp_rt600_RI2019_newlib/xtensa-elf/lib/\libgdbio.a(kill.o)
                                          0x8 (size before relaxing)
 .literal       0x002043cc        0x0 C:/usr/xtensa/XtDevTools/install/builds/RI-2019.1-win32/nxp_rt600_RI2019_newlib/xtensa-elf/lib/\libgdbio.a(lseek.o)
                                         0x14 (size before relaxing)
 .literal       0x002043cc        0x4 C:/usr/xtensa/XtDevTools/install/builds/RI-2019.1-win32/nxp_rt600_RI2019_newlib/xtensa-elf/lib/\libgdbio.a(read.o)
                                         0x14 (size before relaxing)
 .literal       0x002043d0        0x4 C:/usr/xtensa/XtDevTools/install/builds/RI-2019.1-win32/nxp_rt600_RI2019_newlib/xtensa-elf/lib/\libgdbio.a(semihosting.o)
                                         0x1c (size before relaxing)
 .literal       0x002043d4        0x4 C:/usr/xtensa/XtDevTools/install/builds/RI-2019.1-win32/nxp_rt600_RI2019_newlib/xtensa-elf/lib/\libgdbio.a(write.o)
                                         0x14 (size before relaxing)
 .literal       0x002043d8        0x0 C:/usr/xtensa/XtDevTools/install/builds/RI-2019.1-win32/nxp_rt600_RI2019_newlib/xtensa-elf/arch/lib/\libhandlers-board.a(exit.o)
                                          0x4 (size before relaxing)
 .literal       0x002043d8        0x0 C:/usr/xtensa/XtDevTools/install/builds/RI-2019.1-win32/nxp_rt600_RI2019_newlib/xtensa-elf/arch/lib/\libhal.a(windowspill_asm.o)
                                          0x4 (size before relaxing)
 .literal.xthal_set_region_attribute
                0x002043d8        0x8 C:/usr/xtensa/XtDevTools/install/builds/RI-2019.1-win32/nxp_rt600_RI2019_newlib/xtensa-elf/arch/lib/\libhal.a(attribute.o)
                                         0x20 (size before relaxing)
 .literal       0x002043e0        0x4 C:/usr/xtensa/XtDevTools/install/builds/RI-2019.1-win32/nxp_rt600_RI2019_newlib/xtensa-elf/arch/lib/\libhal.a(cache_attr--get_cacheattr.o)
 .literal       0x002043e4        0x4 C:/usr/xtensa/XtDevTools/install/builds/RI-2019.1-win32/nxp_rt600_RI2019_newlib/xtensa-elf/arch/lib/\libhal.a(cache_attr--set_cacheattr.o)
                                          0xc (size before relaxing)
 .literal       0x002043e8        0x8 C:/usr/xtensa/XtDevTools/install/builds/RI-2019.1-win32/nxp_rt600_RI2019_newlib/xtensa-elf/lib/xcc/crtend.o
 .fini.literal  0x002043f0        0x4 C:/usr/xtensa/XtDevTools/install/builds/RI-2019.1-win32/nxp_rt600_RI2019_newlib/xtensa-elf/lib/xcc/crtbegin.o
 .init          0x002043f4        0x3 C:/usr/xtensa/XtDevTools/install/builds/RI-2019.1-win32/nxp_rt600_RI2019_newlib/xtensa-elf/lib/xcc/crti.o
                0x002043f4                _init
 .init          0x002043f7        0x8 C:/usr/xtensa/XtDevTools/install/builds/RI-2019.1-win32/nxp_rt600_RI2019_newlib/xtensa-elf/lib/xcc/crtbegin.o
 .init          0x002043ff        0x0 C:/usr/xtensa/XtDevTools/install/builds/RI-2019.1-win32/nxp_rt600_RI2019_newlib/xtensa-elf/arch/lib/\libxos.a(xos_int_table.o)
 .init          0x002043ff       0x3d C:/usr/xtensa/XtDevTools/install/builds/RI-2019.1-win32/nxp_rt600_RI2019_newlib/xtensa-elf/lib/\libgdbio.a(libinit.o)
 .init          0x0020443c        0x8 C:/usr/xtensa/XtDevTools/install/builds/RI-2019.1-win32/nxp_rt600_RI2019_newlib/xtensa-elf/lib/xcc/crtend.o
 .init          0x00204444        0x2 C:/usr/xtensa/XtDevTools/install/builds/RI-2019.1-win32/nxp_rt600_RI2019_newlib/xtensa-elf/lib/xcc/crtn.o
 *(.literal.sort.* SORT(.text.sort.*))
 *(.literal.keepsort.* SORT(.text.keepsort.*) .literal.keep.* .text.keep.* .literal.*personality* .text.*personality*)
 *(.literal .text .literal.* .text.* .stub .gnu.warning .gnu.linkonce.literal.* .gnu.linkonce.t.*.literal .gnu.linkonce.t.*)
 *fill*         0x00204446        0xa 
 .text          0x00204450       0xa3 C:/usr/xtensa/XtDevTools/install/builds/RI-2019.1-win32/nxp_rt600_RI2019_newlib/xtensa-elf/arch/lib/crt1-boards.o
                                         0xac (size before relaxing)
                0x00204450                _start
 *fill*         0x002044f3        0xd 
 .text          0x00204500       0x55 C:/usr/xtensa/XtDevTools/install/builds/RI-2019.1-win32/nxp_rt600_RI2019_newlib/xtensa-elf/lib/xcc/crtbegin.o
 *fill*         0x00204555        0xb 
 .text          0x00204560      0x279 MIMXRT685S/system_MIMXRT685S_dsp.o
                0x00204678                SystemInit
                0x00204680                SystemCoreClockUpdate
                0x002047d4                SystemInitHook
 *fill*         0x002047d9        0x7 
 .text          0x002047e0       0x59 board/pin_mux.o
                0x0020480c                BOARD_InitBootPins
                0x00204814                BOARD_InitPins
 *fill*         0x00204839        0x7 
 .text          0x00204840      0x32c component/lists/generic_list.o
                0x002048a8                LIST_Init
                0x002048cc                LIST_GetList
                0x002048d8                LIST_AddTail
                0x00204944                LIST_AddHead
                0x002049b0                LIST_RemoveHead
                0x00204a18                LIST_GetHead
                0x00204a24                LIST_GetNext
                0x00204a30                LIST_GetPrev
                0x00204a3c                LIST_RemoveElement
                0x00204ac8                LIST_AddPrevElement
                0x00204b4c                LIST_GetSize
                0x00204b58                LIST_GetAvailableSize
 *fill*         0x00204b6c        0x4 
 .text          0x00204b70      0x542 component/serial_manager/serial_manager.o
                0x00204cf0                SerialManager_Init
                0x00204d70                SerialManager_Deinit
                0x00204de8                SerialManager_OpenWriteHandle
                0x00204e64                SerialManager_CloseWriteHandle
                0x00204ee4                SerialManager_OpenReadHandle
                0x00204f74                SerialManager_CloseReadHandle
                0x00204fec                SerialManager_WriteBlocking
                0x00205004                SerialManager_ReadBlocking
                0x0020501c                SerialManager_EnterLowpower
                0x00205068                SerialManager_ExitLowpower
 *fill*         0x002050b2        0xe 
 .text          0x002050c0      0x21a component/serial_manager/serial_port_uart.o
                0x002050c0                Serial_UartInit
                0x00205154                Serial_UartDeinit
                0x00205184                Serial_UartWrite
                0x002051f0                Serial_UartRead
                0x0020525c                Serial_UartEnterLowpower
                0x0020529c                Serial_UartExitLowpower
 *fill*         0x002052da        0x6 
 .text          0x002052e0      0x2cc component/uart/usart_adapter.o
                0x00205300                HAL_UartInit
                0x00205434                HAL_UartDeinit
                0x0020546c                HAL_UartReceiveBlocking
                0x002054ec                HAL_UartSendBlocking
                0x00205564                HAL_UartEnterLowpower
                0x00205588                HAL_UartExitLowpower
 *fill*         0x002055ac        0x4 
 .text          0x002055b0     0x12fb drivers/fsl_clock.o
                0x00205678                CLOCK_AttachClk
                0x002056fc                CLOCK_SetClkDiv
                0x0020577c                CLOCK_GetFFroFreq
                0x002057c4                CLOCK_GetSysPllFreq
                0x00205864                CLOCK_GetSysPfdFreq
                0x002059b4                CLOCK_GetAudioPllFreq
                0x00205a58                CLOCK_GetAudioPfdFreq
                0x00205b54                CLOCK_GetMainClkFreq
                0x00205c04                CLOCK_GetDspMainClkFreq
                0x00205cb0                CLOCK_GetAdcClkFreq
                0x00205d78                CLOCK_GetClockOutClkFreq
                0x00205e90                CLOCK_GetFRGClock
                0x00206038                CLOCK_GetFlexCommClkFreq
                0x002060fc                CLOCK_GetCtimerClkFreq
                0x00206178                CLOCK_GetFlexspiClkFreq
                0x002061fc                CLOCK_GetSctClkFreq
                0x0020628c                CLOCK_GetMclkClkFreq
                0x002062e4                CLOCK_GetWdtClkFreq
                0x00206358                CLOCK_GetSystickClkFreq
                0x002063cc                CLOCK_GetSdioClkFreq
                0x0020647c                CLOCK_GetI3cClkFreq
                0x002064d8                CLOCK_GetUsbClkFreq
                0x00206530                CLOCK_GetDmicClkFreq
                0x002065c0                CLOCK_GetAcmpClkFreq
                0x00206644                CLOCK_GetFreq
                0x00206790                CLOCK_SetFRGClock
 *fill*         0x002068ab        0x5 
 .text          0x002068b0      0x2a1 drivers/fsl_common.o
                0x002068b0                SDK_Malloc
                0x00206920                SDK_Free
                0x00206954                enableCpuCycleCounter
                0x0020695c                getCpuCycleCount
                0x00206968                SDK_DelayAtLeastUs
 *fill*         0x00206b51        0xf 
 .text          0x00206b60      0x505 drivers/fsl_flexcomm.o
                0x00206cc4                FLEXCOMM_GetInstance
                0x00206d90                FLEXCOMM_Init
                0x00206dc8                FLEXCOMM_SetIRQHandler
                0x00206e00                FLEXCOMM0_DriverIRQHandler
                0x00206e38                FLEXCOMM1_DriverIRQHandler
                0x00206e70                FLEXCOMM2_DriverIRQHandler
                0x00206ea8                FLEXCOMM3_DriverIRQHandler
                0x00206ee0                FLEXCOMM4_DriverIRQHandler
                0x00206f18                FLEXCOMM5_DriverIRQHandler
                0x00206f50                FLEXCOMM6_DriverIRQHandler
                0x00206f88                FLEXCOMM7_DriverIRQHandler
                0x00206fc0                FLEXCOMM14_DriverIRQHandler
                0x00207014                FLEXCOMM15_DriverIRQHandler
 *fill*         0x00207065        0xb 
 .text          0x00207070      0x50c drivers/fsl_gpio.o
                0x00207150                GPIO_PortInit
                0x0020718c                GPIO_PinInit
                0x00207244                GPIO_SetPinInterruptConfig
                0x002072d8                GPIO_PortEnableInterrupts
                0x00207340                GPIO_PortDisableInterrupts
                0x002073b0                GPIO_PortClearInterruptFlags
                0x002073f0                GPIO_PortGetInterruptStatus
                0x00207434                GPIO_PinEnableInterrupt
                0x002074ac                GPIO_PinDisableInterrupt
                0x0020752c                GPIO_PinClearInterruptFlag
 *fill*         0x0020757c        0x4 
 .text          0x00207580      0x351 drivers/fsl_reset.o
                0x00207580                RESET_SetPeripheralReset
                0x00207720                RESET_ClearPeripheralReset
                0x002078c0                RESET_PeripheralReset
 *fill*         0x002078d1        0xf 
 .text          0x002078e0     0x13ad drivers/fsl_usart.o
                0x00207964                USART_GetInstance
                0x002079a8                USART_TransferGetRxRingBufferLength
                0x00207a4c                USART_TransferStartRingBuffer
                0x00207adc                USART_TransferStopRingBuffer
                0x00207b58                USART_Init
                0x00207dd0                USART_Deinit
                0x00207e50                USART_GetDefaultConfig
                0x00207ed0                USART_SetBaudRate
                0x00208000                USART_Enable32kMode
                0x002080b4                USART_WriteBlocking
                0x00208184                USART_ReadBlocking
                0x002082e4                USART_TransferCreateHandle
                0x002083b4                USART_TransferSendNonBlocking
                0x002084a0                USART_TransferAbortSend
                0x00208500                USART_TransferGetSendCount
                0x00208588                USART_TransferReceiveNonBlocking
                0x00208784                USART_TransferAbortReceive
                0x002087ec                USART_TransferGetReceiveCount
                0x00208858                USART_TransferHandleIRQ
 *fill*         0x00208c8d        0x3 
 .text          0x00208c90     0x153b drivers_audio/fsl_dma.o
                0x00209104                DMA_Init
                0x00209158                DMA_Deinit
                0x00209184                DMA_ConfigureChannelTrigger
                0x00209200                DMA_GetRemainingBytes
                0x00209428                DMA_SetupDescriptor
                0x0020953c                DMA_SetupChannelDescriptor
                0x00209734                DMA_CreateDescriptor
                0x002097cc                DMA_AbortTransfer
                0x002098a0                DMA_CreateHandle
                0x00209920                DMA_SetCallback
                0x00209954                DMA_PrepareTransfer
                0x00209ab4                DMA_SetChannelConfig
                0x00209b50                DMA_PrepareChannelTransfer
                0x00209c08                DMA_LoadChannelDescriptor
                0x00209ca4                DMA_InstallDescriptorMemory
                0x00209cf0                DMA_SubmitChannelTransferParameter
                0x00209d84                DMA_SubmitChannelDescriptor
                0x00209dc0                DMA_SubmitChannelTransfer
                0x00209ec8                DMA_SubmitTransfer
                0x00209fa4                DMA_StartTransfer
                0x0020a038                DMA_IRQHandle
                0x0020a1b4                DMA0_DriverIRQHandler
                0x0020a1c0                DMA1_DriverIRQHandler
 *fill*         0x0020a1cb        0x5 
 .text          0x0020a1d0      0x6c7 drivers_audio/fsl_dmic.o
                0x0020a3c8                DMIC_GetInstance
                0x0020a414                DMIC_Init
                0x0020a4a4                DMIC_DeInit
                0x0020a4d8                DMIC_SetOperationMode
                0x0020a54c                DMIC_ConfigChannel
                0x0020a63c                DMIC_CfgChannelDc
                0x0020a680                DMIC_Use2fs
                0x0020a6a0                DMIC_EnableChannnel
                0x0020a6c8                DMIC_FifoChannel
                0x0020a720                DMIC_ResetChannelDecimator
                0x0020a7b8                DMIC_EnableIntCallback
                0x0020a7e4                DMIC_DisableIntCallback
                0x0020a810                DMIC_HwvadEnableIntCallback
                0x0020a83c                DMIC_HwvadDisableIntCallback
                0x0020a868                DMIC0_DriverIRQHandler
                0x0020a880                HWVAD0_DriverIRQHandler
 *fill*         0x0020a897        0x9 
 .text          0x0020a8a0      0x67f drivers_audio/fsl_dmic_dma.o
                0x0020a970                DMIC_InstallDMADescriptorMemory
                0x0020a9a4                DMIC_TransferCreateHandleDMA
                0x0020aa34                DMIC_TransferReceiveDMA
                0x0020ae38                DMIC_TransferAbortReceiveDMA
                0x0020ae8c                DMIC_TransferGetReceiveCountDMA
 *fill*         0x0020af1f        0x1 
 .text          0x0020af20     0x172e drivers_audio/fsl_i2s.o
                0x0020b004                I2S_SetBitClockRate
                0x0020b058                I2S_TxInit
                0x0020b0f0                I2S_RxInit
                0x0020b174                I2S_TxGetDefaultConfig
                0x0020b1e4                I2S_RxGetDefaultConfig
                0x0020b3b0                I2S_Deinit
                0x0020b6cc                I2S_EnableSecondaryChannel
                0x0020b788                I2S_TxTransferCreateHandle
                0x0020b870                I2S_TxTransferNonBlocking
                0x0020b974                I2S_TxTransferAbort
                0x0020b9c8                I2S_RxTransferCreateHandle
                0x0020bab0                I2S_RxTransferNonBlocking
                0x0020bbb4                I2S_RxTransferAbort
                0x0020bc08                I2S_TransferGetCount
                0x0020bc8c                I2S_TransferGetErrorCount
                0x0020bd10                I2S_TxHandleIRQ
                0x0020c214                I2S_RxHandleIRQ
 *fill*         0x0020c64e        0x2 
 .text          0x0020c650      0xe8a drivers_audio/fsl_i2s_dma.o
                0x0020c998                I2S_TxTransferCreateHandleDMA
                0x0020ca7c                I2S_TxTransferSendDMA
                0x0020caf4                I2S_TransferAbortDMA
                0x0020cc48                I2S_RxTransferCreateHandleDMA
                0x0020cc64                I2S_RxTransferReceiveDMA
                0x0020d368                I2S_DMACallback
 *fill*         0x0020d4da        0x6 
 .text          0x0020d4e0      0x285 drivers_audio/fsl_inputmux.o
                0x0020d6a0                INPUTMUX_Init
                0x0020d6b0                INPUTMUX_AttachSignal
                0x0020d6e0                INPUTMUX_EnableSignal
                0x0020d758                INPUTMUX_Deinit
 *fill*         0x0020d765        0xb 
 .text          0x0020d770       0x24 evkmimxrt685/board_hifi4.o
                0x0020d770                BOARD_InitDebugConsole
 *fill*         0x0020d794        0xc 
 .text          0x0020d7a0      0x9e0 user/main.o
                0x0020d954                dmic_Callback
                0x0020d97c                DMIC0_3_U16CovU32_Callback
                0x0020d998                DMIC4_7_U16CovU32_Callback
                0x0020d9b4                main
                0x0020da10                thread_AudioTask_func
 .text          0x0020e180      0x13f user/user_pin_mux.o
                0x0020e1ac                BOARD_Init_UserPin
 *fill*         0x0020e2bf        0x1 
 .text          0x0020e2c0      0x5a2 utilities/fsl_debug_console.o
                0x0020e2c0                DbgConsole_ReadOneCharacter
                0x0020e2ec                DbgConsole_SendData
                0x0020e34c                DbgConsole_SendDataReliable
                0x0020e3c0                DbgConsole_ReadLine
                0x0020e474                DbgConsole_ReadCharacter
                0x0020e528                DbgConsole_Init
                0x0020e644                DbgConsole_Deinit
                0x0020e690                DbgConsole_Flush
                0x0020e698                DbgConsole_Printf
                0x0020e724                DbgConsole_Putchar
                0x0020e73c                DbgConsole_Scanf
                0x0020e798                DbgConsole_BlockingPrintf
                0x0020e850                DbgConsole_Getchar
 *fill*         0x0020e862        0xe 
 .text          0x0020e870      0xf6d utilities/fsl_str.o
                0x0020ed60                StrFormatPrintf
                0x0020f4b4                StrFormatScanf
 *fill*         0x0020f7dd        0x3 
 .text.xos_register_interrupt_handler
                0x0020f7e0       0x1d C:/usr/xtensa/XtDevTools/install/builds/RI-2019.1-win32/nxp_rt600_RI2019_newlib/xtensa-elf/arch/lib/\libxos.a(xos.o)
                0x0020f7e0                xos_register_interrupt_handler
 *fill*         0x0020f7fd        0x3 
 .text.xos_int_unhandled
                0x0020f800        0xe C:/usr/xtensa/XtDevTools/install/builds/RI-2019.1-win32/nxp_rt600_RI2019_newlib/xtensa-elf/arch/lib/\libxos.a(xos.o)
                                         0x11 (size before relaxing)
                0x0020f800                xos_int_unhandled
 *fill*         0x0020f80e        0x2 
 .text.xos_unregister_interrupt_handler
                0x0020f810       0x15 C:/usr/xtensa/XtDevTools/install/builds/RI-2019.1-win32/nxp_rt600_RI2019_newlib/xtensa-elf/arch/lib/\libxos.a(xos.o)
                0x0020f810                xos_unregister_interrupt_handler
 *fill*         0x0020f825        0x3 
 .text.xos_register_hp_interrupt_handler
                0x0020f828       0x45 C:/usr/xtensa/XtDevTools/install/builds/RI-2019.1-win32/nxp_rt600_RI2019_newlib/xtensa-elf/arch/lib/\libxos.a(xos.o)
                0x0020f828                xos_register_hp_interrupt_handler
 *fill*         0x0020f86d        0x3 
 .text.xos_interrupt_enable
                0x0020f870       0x39 C:/usr/xtensa/XtDevTools/install/builds/RI-2019.1-win32/nxp_rt600_RI2019_newlib/xtensa-elf/arch/lib/\libxos.a(xos.o)
                0x0020f870                xos_interrupt_enable
 *fill*         0x0020f8a9        0x3 
 .text.xos_interrupt_enabled
                0x0020f8ac       0x18 C:/usr/xtensa/XtDevTools/install/builds/RI-2019.1-win32/nxp_rt600_RI2019_newlib/xtensa-elf/arch/lib/\libxos.a(xos.o)
                0x0020f8ac                xos_interrupt_enabled
 .text.xos_interrupt_disable
                0x0020f8c4       0x3d C:/usr/xtensa/XtDevTools/install/builds/RI-2019.1-win32/nxp_rt600_RI2019_newlib/xtensa-elf/arch/lib/\libxos.a(xos.o)
                                         0x40 (size before relaxing)
                0x0020f8c4                xos_interrupt_disable
 *fill*         0x0020f901        0x3 
 .text.xos_interrupt_in_use
                0x0020f904       0x23 C:/usr/xtensa/XtDevTools/install/builds/RI-2019.1-win32/nxp_rt600_RI2019_newlib/xtensa-elf/arch/lib/\libxos.a(xos.o)
                0x0020f904                xos_interrupt_in_use
 *fill*         0x0020f927        0x1 
 .text.xos_register_fatal_error_handler
                0x0020f928        0xf C:/usr/xtensa/XtDevTools/install/builds/RI-2019.1-win32/nxp_rt600_RI2019_newlib/xtensa-elf/arch/lib/\libxos.a(xos.o)
                0x0020f928                xos_register_fatal_error_handler
 *fill*         0x0020f937        0x1 
 .text.xos_fatal_error
                0x0020f938       0x1c C:/usr/xtensa/XtDevTools/install/builds/RI-2019.1-win32/nxp_rt600_RI2019_newlib/xtensa-elf/arch/lib/\libxos.a(xos.o)
                                         0x1f (size before relaxing)
                0x0020f938                xos_fatal_error
 *fill*         0x0020f954        0x0 
 .text.xos_default_exception_handler
                0x0020f954       0x29 C:/usr/xtensa/XtDevTools/install/builds/RI-2019.1-win32/nxp_rt600_RI2019_newlib/xtensa-elf/arch/lib/\libxos.a(xos.o)
                                         0x2d (size before relaxing)
                0x0020f954                xos_default_exception_handler
 *fill*         0x0020f97d        0x3 
 .text.xos_register_exception_handler
                0x0020f980       0x43 C:/usr/xtensa/XtDevTools/install/builds/RI-2019.1-win32/nxp_rt600_RI2019_newlib/xtensa-elf/arch/lib/\libxos.a(xos.o)
                0x0020f980                xos_register_exception_handler
 *fill*         0x0020f9c3        0x1 
 .text          0x0020f9c4      0x16d C:/usr/xtensa/XtDevTools/install/builds/RI-2019.1-win32/nxp_rt600_RI2019_newlib/xtensa-elf/arch/lib/\libxos.a(xos_exc_handler.o)
                0x0020f9d8                _xos_exc_dispatcher
                0x0020fa86                _GeneralException
 *fill*         0x0020fb31        0x3 
 .text.xos_start_main
                0x0020fb34       0xdc C:/usr/xtensa/XtDevTools/install/builds/RI-2019.1-win32/nxp_rt600_RI2019_newlib/xtensa-elf/arch/lib/\libxos.a(xos_start_main.o)
                                         0xf0 (size before relaxing)
                0x0020fb34                xos_start_main
 .text.xos_q_pop
                0x0020fc10       0x15 C:/usr/xtensa/XtDevTools/install/builds/RI-2019.1-win32/nxp_rt600_RI2019_newlib/xtensa-elf/arch/lib/\libxos.a(xos_thread.o)
                0x0020fc10                xos_q_pop
 *fill*         0x0020fc25        0xb 
 .text.xos_thread_create
                0x0020fc30      0x20e C:/usr/xtensa/XtDevTools/install/builds/RI-2019.1-win32/nxp_rt600_RI2019_newlib/xtensa-elf/arch/lib/\libxos.a(xos_thread.o)
                                        0x211 (size before relaxing)
                0x0020fc30                xos_thread_create
 *fill*         0x0020fe3e        0x2 
 .text.xos_thread_delete
                0x0020fe40       0x71 C:/usr/xtensa/XtDevTools/install/builds/RI-2019.1-win32/nxp_rt600_RI2019_newlib/xtensa-elf/arch/lib/\libxos.a(xos_thread.o)
                0x0020fe40                xos_thread_delete
 *fill*         0x0020feb1        0xf 
 .text.xos_init
                0x0020fec0       0x73 C:/usr/xtensa/XtDevTools/install/builds/RI-2019.1-win32/nxp_rt600_RI2019_newlib/xtensa-elf/arch/lib/\libxos.a(xos_thread.o)
                                         0x79 (size before relaxing)
                0x0020fec0                xos_init
 *fill*         0x0020ff33        0x1 
 .text.xos_init_done
                0x0020ff34        0xb C:/usr/xtensa/XtDevTools/install/builds/RI-2019.1-win32/nxp_rt600_RI2019_newlib/xtensa-elf/arch/lib/\libxos.a(xos_thread.o)
                0x0020ff34                xos_init_done
 *fill*         0x0020ff3f        0x1 
 .text.xos_start
                0x0020ff40       0xb2 C:/usr/xtensa/XtDevTools/install/builds/RI-2019.1-win32/nxp_rt600_RI2019_newlib/xtensa-elf/arch/lib/\libxos.a(xos_thread.o)
                                         0xc2 (size before relaxing)
                0x0020ff40                xos_start
 *fill*         0x0020fff2        0x2 
 .text.xos_started
                0x0020fff4        0xb C:/usr/xtensa/XtDevTools/install/builds/RI-2019.1-win32/nxp_rt600_RI2019_newlib/xtensa-elf/arch/lib/\libxos.a(xos_thread.o)
                0x0020fff4                xos_started
 *fill*         0x0020ffff        0x1 
 .text.xos_schedule
                0x00210000       0x46 C:/usr/xtensa/XtDevTools/install/builds/RI-2019.1-win32/nxp_rt600_RI2019_newlib/xtensa-elf/arch/lib/\libxos.a(xos_thread.o)
                0x00210000                xos_schedule
 *fill*         0x00210046        0x2 
 .text.xos_thread_yield
                0x00210048       0x64 C:/usr/xtensa/XtDevTools/install/builds/RI-2019.1-win32/nxp_rt600_RI2019_newlib/xtensa-elf/arch/lib/\libxos.a(xos_thread.o)
                                         0x6c (size before relaxing)
                0x00210048                xos_thread_yield
 .text.xos_block
                0x002100ac       0xc5 C:/usr/xtensa/XtDevTools/install/builds/RI-2019.1-win32/nxp_rt600_RI2019_newlib/xtensa-elf/arch/lib/\libxos.a(xos_thread.o)
                                         0xd0 (size before relaxing)
                0x002100ac                xos_block
 *fill*         0x00210171        0x3 
 .text.xos_thread_wake
                0x00210174       0xcb C:/usr/xtensa/XtDevTools/install/builds/RI-2019.1-win32/nxp_rt600_RI2019_newlib/xtensa-elf/arch/lib/\libxos.a(xos_thread.o)
                                         0xcf (size before relaxing)
                0x00210174                xos_thread_wake
 *fill*         0x0021023f        0x1 
 .text.xos_thread_set_priority
                0x00210240       0xf2 C:/usr/xtensa/XtDevTools/install/builds/RI-2019.1-win32/nxp_rt600_RI2019_newlib/xtensa-elf/arch/lib/\libxos.a(xos_thread.o)
                                         0xfd (size before relaxing)
                0x00210240                xos_thread_set_priority
 *fill*         0x00210332        0x2 
 .text.xos_wake_queue
                0x00210334       0x51 C:/usr/xtensa/XtDevTools/install/builds/RI-2019.1-win32/nxp_rt600_RI2019_newlib/xtensa-elf/arch/lib/\libxos.a(xos_thread.o)
                                         0x54 (size before relaxing)
                0x00210334                xos_wake_queue
 *fill*         0x00210385        0x3 
 .text.xos_thread_set_exit_handler
                0x00210388       0x2c C:/usr/xtensa/XtDevTools/install/builds/RI-2019.1-win32/nxp_rt600_RI2019_newlib/xtensa-elf/arch/lib/\libxos.a(xos_thread.o)
                0x00210388                xos_thread_set_exit_handler
 .text.xos_thread_exit
                0x002103b4       0x56 C:/usr/xtensa/XtDevTools/install/builds/RI-2019.1-win32/nxp_rt600_RI2019_newlib/xtensa-elf/arch/lib/\libxos.a(xos_thread.o)
                                         0x62 (size before relaxing)
                0x002103b4                xos_thread_exit
 *fill*         0x0021040a        0x2 
 .text.xos_thread_join
                0x0021040c       0x80 C:/usr/xtensa/XtDevTools/install/builds/RI-2019.1-win32/nxp_rt600_RI2019_newlib/xtensa-elf/arch/lib/\libxos.a(xos_thread.o)
                0x0021040c                xos_thread_join
 .text.xos_thread_suspend
                0x0021048c       0xa3 C:/usr/xtensa/XtDevTools/install/builds/RI-2019.1-win32/nxp_rt600_RI2019_newlib/xtensa-elf/arch/lib/\libxos.a(xos_thread.o)
                                         0xa7 (size before relaxing)
                0x0021048c                xos_thread_suspend
 *fill*         0x0021052f        0x1 
 .text.xos_thread_resume
                0x00210530       0x2f C:/usr/xtensa/XtDevTools/install/builds/RI-2019.1-win32/nxp_rt600_RI2019_newlib/xtensa-elf/arch/lib/\libxos.a(xos_thread.o)
                                         0x32 (size before relaxing)
                0x00210530                xos_thread_resume
 *fill*         0x0021055f        0x1 
 .text.xos_thread_abort
                0x00210560       0xe2 C:/usr/xtensa/XtDevTools/install/builds/RI-2019.1-win32/nxp_rt600_RI2019_newlib/xtensa-elf/arch/lib/\libxos.a(xos_thread.o)
                                         0xed (size before relaxing)
                0x00210560                xos_thread_abort
 *fill*         0x00210642        0x2 
 .text.xos_thread_get_state
                0x00210644       0x47 C:/usr/xtensa/XtDevTools/install/builds/RI-2019.1-win32/nxp_rt600_RI2019_newlib/xtensa-elf/arch/lib/\libxos.a(xos_thread.o)
                0x00210644                xos_thread_get_state
 *fill*         0x0021068b        0x1 
 .text.xos_preemption_disable
                0x0021068c       0x19 C:/usr/xtensa/XtDevTools/install/builds/RI-2019.1-win32/nxp_rt600_RI2019_newlib/xtensa-elf/arch/lib/\libxos.a(xos_thread.o)
                0x0021068c                xos_preemption_disable
 *fill*         0x002106a5        0x3 
 .text.xos_preemption_enable
                0x002106a8       0x2f C:/usr/xtensa/XtDevTools/install/builds/RI-2019.1-win32/nxp_rt600_RI2019_newlib/xtensa-elf/arch/lib/\libxos.a(xos_thread.o)
                                         0x33 (size before relaxing)
                0x002106a8                xos_preemption_enable
 *fill*         0x002106d7        0x1 
 .text.xos_thread_mutex_add
                0x002106d8       0x66 C:/usr/xtensa/XtDevTools/install/builds/RI-2019.1-win32/nxp_rt600_RI2019_newlib/xtensa-elf/arch/lib/\libxos.a(xos_thread.o)
                0x002106d8                xos_thread_mutex_add
 *fill*         0x0021073e        0x2 
 .text.xos_thread_mutex_rem
                0x00210740       0x64 C:/usr/xtensa/XtDevTools/install/builds/RI-2019.1-win32/nxp_rt600_RI2019_newlib/xtensa-elf/arch/lib/\libxos.a(xos_thread.o)
                                         0x67 (size before relaxing)
                0x00210740                xos_thread_mutex_rem
 *fill*         0x002107a4        0x0 
 .text.xos_thread_mutex_bump
                0x002107a4       0x6e C:/usr/xtensa/XtDevTools/install/builds/RI-2019.1-win32/nxp_rt600_RI2019_newlib/xtensa-elf/arch/lib/\libxos.a(xos_thread.o)
                0x002107a4                xos_thread_mutex_bump
 *fill*         0x00210812        0x2 
 .text.xos_q_move
                0x00210814       0x5b C:/usr/xtensa/XtDevTools/install/builds/RI-2019.1-win32/nxp_rt600_RI2019_newlib/xtensa-elf/arch/lib/\libxos.a(xos_thread.o)
                                         0x5f (size before relaxing)
 *fill*         0x0021086f        0x1 
 .text.xos_switch_to
                0x00210870       0x35 C:/usr/xtensa/XtDevTools/install/builds/RI-2019.1-win32/nxp_rt600_RI2019_newlib/xtensa-elf/arch/lib/\libxos.a(xos_thread.o)
 *fill*         0x002108a5        0x3 
 .text.xos_tick_handler
                0x002108a8      0x201 C:/usr/xtensa/XtDevTools/install/builds/RI-2019.1-win32/nxp_rt600_RI2019_newlib/xtensa-elf/arch/lib/\libxos.a(xos_timer.o)
                                        0x205 (size before relaxing)
                0x002108a8                xos_tick_handler
 *fill*         0x00210aa9        0x3 
 .text.xos_start_system_timer
                0x00210aac       0x75 C:/usr/xtensa/XtDevTools/install/builds/RI-2019.1-win32/nxp_rt600_RI2019_newlib/xtensa-elf/arch/lib/\libxos.a(xos_timer.o)
                                         0x79 (size before relaxing)
                0x00210aac                xos_start_system_timer
 *fill*         0x00210b21        0x3 
 .text.xos_get_system_timer_num
                0x00210b24        0xa C:/usr/xtensa/XtDevTools/install/builds/RI-2019.1-win32/nxp_rt600_RI2019_newlib/xtensa-elf/arch/lib/\libxos.a(xos_timer.o)
                0x00210b24                xos_get_system_timer_num
 *fill*         0x00210b2e        0x2 
 .text.xos_timer_start
                0x00210b30      0x107 C:/usr/xtensa/XtDevTools/install/builds/RI-2019.1-win32/nxp_rt600_RI2019_newlib/xtensa-elf/arch/lib/\libxos.a(xos_timer.o)
                0x00210b30                xos_timer_start
 *fill*         0x00210c37        0x1 
 .text.xos_timer_stop
                0x00210c38       0x7a C:/usr/xtensa/XtDevTools/install/builds/RI-2019.1-win32/nxp_rt600_RI2019_newlib/xtensa-elf/arch/lib/\libxos.a(xos_timer.o)
                                         0x7e (size before relaxing)
                0x00210c38                xos_timer_stop
 *fill*         0x00210cb2        0x2 
 .text.xos_timer_restart
                0x00210cb4       0xcf C:/usr/xtensa/XtDevTools/install/builds/RI-2019.1-win32/nxp_rt600_RI2019_newlib/xtensa-elf/arch/lib/\libxos.a(xos_timer.o)
                0x00210cb4                xos_timer_restart
 *fill*         0x00210d83        0x1 
 .text.xos_timer_set_period
                0x00210d84       0x38 C:/usr/xtensa/XtDevTools/install/builds/RI-2019.1-win32/nxp_rt600_RI2019_newlib/xtensa-elf/arch/lib/\libxos.a(xos_timer.o)
                0x00210d84                xos_timer_set_period
 .text.xos_thread_sleep
                0x00210dbc       0x8f C:/usr/xtensa/XtDevTools/install/builds/RI-2019.1-win32/nxp_rt600_RI2019_newlib/xtensa-elf/arch/lib/\libxos.a(xos_timer.o)
                                         0x97 (size before relaxing)
                0x00210dbc                xos_thread_sleep
 *fill*         0x00210e4b        0x1 
 .text.xos_timer_wait
                0x00210e4c       0x36 C:/usr/xtensa/XtDevTools/install/builds/RI-2019.1-win32/nxp_rt600_RI2019_newlib/xtensa-elf/arch/lib/\libxos.a(xos_timer.o)
                                         0x3a (size before relaxing)
                0x00210e4c                xos_timer_wait
 *fill*         0x00210e82        0x2 
 .text.thread_wakeup_cb
                0x00210e84       0x13 C:/usr/xtensa/XtDevTools/install/builds/RI-2019.1-win32/nxp_rt600_RI2019_newlib/xtensa-elf/arch/lib/\libxos.a(xos_timer.o)
                                         0x16 (size before relaxing)
 *fill*         0x00210e97        0x1 
 .text.xos_insert_timer
                0x00210e98       0xaf C:/usr/xtensa/XtDevTools/install/builds/RI-2019.1-win32/nxp_rt600_RI2019_newlib/xtensa-elf/arch/lib/\libxos.a(xos_timer.o)
                                         0xb2 (size before relaxing)
 *fill*         0x00210f47        0x1 
 .text          0x00210f48      0x5c5 C:/usr/xtensa/XtDevTools/install/builds/RI-2019.1-win32/nxp_rt600_RI2019_newlib/xtensa-elf/arch/lib/\libxos.a(xos_handlers.o)
                                        0x5c9 (size before relaxing)
                0x00210f48                xos_dummy_handler
                0x00210f4c                xos_level2_interrupt_dispatch
                0x00210f68                xos_level3_interrupt_dispatch
                0x00210f84                xos_nmi_dispatch
                0x00210f9d                xos_dispatch_from_idle
                0x00210ff1                xos_dispatch_from_restore
                0x00211038                xos_dispatch_from_nest
                0x00211054                xos_dispatch_from_thread
                0x00211258                xos_resume_idle_thread
                0x002112a6                xos_resume_preempted_thread
                0x00211394                xos_switch_rtc_thread
                0x002113e4                xos_resume_by_restart
                0x00211436                xos_thread_exit_trap
                0x00211440                xos_thread_abort_stub
                0x0021144c                xos_switch_thread
                0x002114b8                xos_start_thread
                0x002114c8                xos_resume_cooperative_thread
 *fill*         0x0021150d        0x3 
 .text.__malloc_lock
                0x00211510       0x2e C:/usr/xtensa/XtDevTools/install/builds/RI-2019.1-win32/nxp_rt600_RI2019_newlib/xtensa-elf/arch/lib/\libxos.a(xos_clib.o)
                0x00211510                __malloc_lock
 *fill*         0x0021153e        0x2 
 .text.__malloc_unlock
                0x00211540       0x2b C:/usr/xtensa/XtDevTools/install/builds/RI-2019.1-win32/nxp_rt600_RI2019_newlib/xtensa-elf/arch/lib/\libxos.a(xos_clib.o)
                0x00211540                __malloc_unlock
 *fill*         0x0021156b        0x1 
 .text.__env_lock
                0x0021156c        0xa C:/usr/xtensa/XtDevTools/install/builds/RI-2019.1-win32/nxp_rt600_RI2019_newlib/xtensa-elf/arch/lib/\libxos.a(xos_clib.o)
                                          0xd (size before relaxing)
                0x0021156c                __env_lock
 *fill*         0x00211576        0x2 
 .text.__env_unlock
                0x00211578        0xa C:/usr/xtensa/XtDevTools/install/builds/RI-2019.1-win32/nxp_rt600_RI2019_newlib/xtensa-elf/arch/lib/\libxos.a(xos_clib.o)
                                          0xd (size before relaxing)
                0x00211578                __env_unlock
 *fill*         0x00211582        0x2 
 .text._sbrk_r  0x00211584       0x2a C:/usr/xtensa/XtDevTools/install/builds/RI-2019.1-win32/nxp_rt600_RI2019_newlib/xtensa-elf/arch/lib/\libxos.a(xos_clib.o)
                0x00211584                _sbrk_r
 *fill*         0x002115ae        0x2 
 .text.xos_clib_init
                0x002115b0       0x21 C:/usr/xtensa/XtDevTools/install/builds/RI-2019.1-win32/nxp_rt600_RI2019_newlib/xtensa-elf/arch/lib/\libxos.a(xos_clib.o)
                0x002115b0                xos_clib_init
 *fill*         0x002115d1        0x3 
 .text.xos_clib_thread_init
                0x002115d4      0x122 C:/usr/xtensa/XtDevTools/install/builds/RI-2019.1-win32/nxp_rt600_RI2019_newlib/xtensa-elf/arch/lib/\libxos.a(xos_clib.o)
                                        0x12e (size before relaxing)
                0x002115d4                xos_clib_thread_init
 *fill*         0x002116f6        0xa 
 .text.xos_clib_thread_cleanup
                0x00211700       0x2c C:/usr/xtensa/XtDevTools/install/builds/RI-2019.1-win32/nxp_rt600_RI2019_newlib/xtensa-elf/arch/lib/\libxos.a(xos_clib.o)
                                         0x2f (size before relaxing)
                0x00211700                xos_clib_thread_cleanup
 *fill*         0x0021172c        0x0 
 .text          0x0021172c      0x245 C:/usr/xtensa/XtDevTools/install/builds/RI-2019.1-win32/nxp_rt600_RI2019_newlib/xtensa-elf/arch/lib/\libxos.a(xos_coproc_handler.o)
                0x0021172c                _xos_coproc_handler
                0x00211910                _xos_cp_state
                0x00211928                _xos_coproc_savecs
                0x0021194c                _xos_coproc_restorecs
 *fill*         0x00211971        0x3 
 .text.xos_mutex_create
                0x00211974       0x49 C:/usr/xtensa/XtDevTools/install/builds/RI-2019.1-win32/nxp_rt600_RI2019_newlib/xtensa-elf/arch/lib/\libxos.a(xos_mutex.o)
                0x00211974                xos_mutex_create
 *fill*         0x002119bd        0x3 
 .text.xos_mutex_delete
                0x002119c0       0x7a C:/usr/xtensa/XtDevTools/install/builds/RI-2019.1-win32/nxp_rt600_RI2019_newlib/xtensa-elf/arch/lib/\libxos.a(xos_mutex.o)
                                         0x89 (size before relaxing)
                0x002119c0                xos_mutex_delete
 *fill*         0x00211a3a        0x2 
 .text.xos_mutex_lock
                0x00211a3c       0x92 C:/usr/xtensa/XtDevTools/install/builds/RI-2019.1-win32/nxp_rt600_RI2019_newlib/xtensa-elf/arch/lib/\libxos.a(xos_mutex.o)
                                         0x9d (size before relaxing)
                0x00211a3c                xos_mutex_lock
 *fill*         0x00211ace        0x2 
 .text.xos_mutex_lock_timeout
                0x00211ad0       0xc8 C:/usr/xtensa/XtDevTools/install/builds/RI-2019.1-win32/nxp_rt600_RI2019_newlib/xtensa-elf/arch/lib/\libxos.a(xos_mutex.o)
                                         0xd7 (size before relaxing)
                0x00211ad0                xos_mutex_lock_timeout
 *fill*         0x00211b98        0x0 
 .text.xos_mutex_unlock
                0x00211b98       0x62 C:/usr/xtensa/XtDevTools/install/builds/RI-2019.1-win32/nxp_rt600_RI2019_newlib/xtensa-elf/arch/lib/\libxos.a(xos_mutex.o)
                                         0x6d (size before relaxing)
                0x00211b98                xos_mutex_unlock
 *fill*         0x00211bfa        0x2 
 .text.xos_mutex_trylock
                0x00211bfc       0x57 C:/usr/xtensa/XtDevTools/install/builds/RI-2019.1-win32/nxp_rt600_RI2019_newlib/xtensa-elf/arch/lib/\libxos.a(xos_mutex.o)
                                         0x5b (size before relaxing)
                0x00211bfc                xos_mutex_trylock
 *fill*         0x00211c53        0x1 
 .text.mutex_wakeup_cb
                0x00211c54       0x14 C:/usr/xtensa/XtDevTools/install/builds/RI-2019.1-win32/nxp_rt600_RI2019_newlib/xtensa-elf/arch/lib/\libxos.a(xos_mutex.o)
                                         0x17 (size before relaxing)
 *fill*         0x00211c68        0x0 
 .text.xos_once_init
                0x00211c68       0x11 C:/usr/xtensa/XtDevTools/install/builds/RI-2019.1-win32/nxp_rt600_RI2019_newlib/xtensa-elf/arch/lib/\libxos.a(xos_once.o)
                                         0x14 (size before relaxing)
                0x00211c68                xos_once_init
 *fill*         0x00211c79        0x3 
 .text.xos_once
                0x00211c7c       0x49 C:/usr/xtensa/XtDevTools/install/builds/RI-2019.1-win32/nxp_rt600_RI2019_newlib/xtensa-elf/arch/lib/\libxos.a(xos_once.o)
                                         0x4d (size before relaxing)
                0x00211c7c                xos_once
 *fill*         0x00211cc5        0x3 
 .text.xos_system_timer_get
                0x00211cc8       0x27 C:/usr/xtensa/XtDevTools/install/builds/RI-2019.1-win32/nxp_rt600_RI2019_newlib/xtensa-elf/arch/lib/\libxos.a(xos_system_timer.o)
                0x00211cc8                xos_system_timer_get
 *fill*         0x00211cef        0x1 
 .text.xos_system_timer_set
                0x00211cf0       0x60 C:/usr/xtensa/XtDevTools/install/builds/RI-2019.1-win32/nxp_rt600_RI2019_newlib/xtensa-elf/arch/lib/\libxos.a(xos_system_timer.o)
                0x00211cf0                xos_system_timer_set
 .text.xos_system_timer_pending
                0x00211d50       0x26 C:/usr/xtensa/XtDevTools/install/builds/RI-2019.1-win32/nxp_rt600_RI2019_newlib/xtensa-elf/arch/lib/\libxos.a(xos_system_timer.o)
                0x00211d50                xos_system_timer_pending
 *fill*         0x00211d76        0xa 
 .text.xos_system_timer_select
                0x00211d80       0x6a C:/usr/xtensa/XtDevTools/install/builds/RI-2019.1-win32/nxp_rt600_RI2019_newlib/xtensa-elf/arch/lib/\libxos.a(xos_system_timer.o)
                0x00211d80                xos_system_timer_select
 *fill*         0x00211dea        0x2 
 .text.xos_system_timer_init
                0x00211dec       0x1f C:/usr/xtensa/XtDevTools/install/builds/RI-2019.1-win32/nxp_rt600_RI2019_newlib/xtensa-elf/arch/lib/\libxos.a(xos_system_timer.o)
                                         0x27 (size before relaxing)
                0x00211dec                xos_system_timer_init
 *fill*         0x00211e0b        0x1 
 .text.timer_intr_handler
                0x00211e0c        0x8 C:/usr/xtensa/XtDevTools/install/builds/RI-2019.1-win32/nxp_rt600_RI2019_newlib/xtensa-elf/arch/lib/\libxos.a(xos_system_timer.o)
                                          0xb (size before relaxing)
 *fill*         0x00211e14        0xc 
 .text.__clibrary_init
                0x00211e20       0x23 C:/usr/xtensa/XtDevTools/install/builds/RI-2019.1-win32/nxp_rt600_RI2019_newlib/xtensa-elf/lib/\libc.a(clibrary_init.o)
                0x00211e20                __clibrary_init
 *fill*         0x00211e43        0xd 
 .text.__assert_func
                0x00211e50       0x30 C:/usr/xtensa/XtDevTools/install/builds/RI-2019.1-win32/nxp_rt600_RI2019_newlib/xtensa-elf/lib/\libc.a(lib_a-assert.o)
                                         0x36 (size before relaxing)
                0x00211e50                __assert_func
 *fill*         0x00211e80        0x0 
 .text.__assert
                0x00211e80       0x12 C:/usr/xtensa/XtDevTools/install/builds/RI-2019.1-win32/nxp_rt600_RI2019_newlib/xtensa-elf/lib/\libc.a(lib_a-assert.o)
                                         0x15 (size before relaxing)
                0x00211e80                __assert
 *fill*         0x00211e92        0xe 
 .text.exit     0x00211ea0       0x20 C:/usr/xtensa/XtDevTools/install/builds/RI-2019.1-win32/nxp_rt600_RI2019_newlib/xtensa-elf/lib/\libc.a(lib_a-exit.o)
                                         0x23 (size before relaxing)
                0x00211ea0                exit
 *fill*         0x00211ec0        0x0 
 .text._fiprintf_r
                0x00211ec0       0x2e C:/usr/xtensa/XtDevTools/install/builds/RI-2019.1-win32/nxp_rt600_RI2019_newlib/xtensa-elf/lib/\libc.a(lib_a-fiprintf.o)
                                         0x31 (size before relaxing)
                0x00211ec0                _fiprintf_r
 *fill*         0x00211eee        0x2 
 .text.fiprintf
                0x00211ef0       0x34 C:/usr/xtensa/XtDevTools/install/builds/RI-2019.1-win32/nxp_rt600_RI2019_newlib/xtensa-elf/lib/\libc.a(lib_a-fiprintf.o)
                0x00211ef0                fiprintf
 *fill*         0x00211f24        0xc 
 .text.malloc   0x00211f30       0x14 C:/usr/xtensa/XtDevTools/install/builds/RI-2019.1-win32/nxp_rt600_RI2019_newlib/xtensa-elf/lib/\libc.a(lib_a-malloc.o)
                0x00211f30                malloc
 *fill*         0x00211f44        0xc 
 .text.free     0x00211f50       0x11 C:/usr/xtensa/XtDevTools/install/builds/RI-2019.1-win32/nxp_rt600_RI2019_newlib/xtensa-elf/lib/\libc.a(lib_a-malloc.o)
                                         0x14 (size before relaxing)
                0x00211f50                free
 *fill*         0x00211f61        0xf 
 .text._malloc_r
                0x00211f70      0x527 C:/usr/xtensa/XtDevTools/install/builds/RI-2019.1-win32/nxp_rt600_RI2019_newlib/xtensa-elf/lib/\libc.a(lib_a-mallocr.o)
                0x00211f70                _malloc_r
 *fill*         0x00212497        0x9 
 .text.cleanup_glue
                0x002124a0       0x1e C:/usr/xtensa/XtDevTools/install/builds/RI-2019.1-win32/nxp_rt600_RI2019_newlib/xtensa-elf/lib/\libc.a(lib_a-reent.o)
                0x002124a0                cleanup_glue
 *fill*         0x002124be        0x2 
 .text._reclaim_reent
                0x002124c0       0x8c C:/usr/xtensa/XtDevTools/install/builds/RI-2019.1-win32/nxp_rt600_RI2019_newlib/xtensa-elf/lib/\libc.a(lib_a-reent.o)
                0x002124c0                _reclaim_reent
 *fill*         0x0021254c        0x4 
 .text._wrapup_reent
                0x00212550       0x38 C:/usr/xtensa/XtDevTools/install/builds/RI-2019.1-win32/nxp_rt600_RI2019_newlib/xtensa-elf/lib/\libc.a(lib_a-reent.o)
                0x00212550                _wrapup_reent
 *fill*         0x00212588        0x8 
 .text.strlen   0x00212590       0x68 C:/usr/xtensa/XtDevTools/install/builds/RI-2019.1-win32/nxp_rt600_RI2019_newlib/xtensa-elf/lib/\libc.a(lib_a-strlen.o)
                0x00212590                strlen
 *fill*         0x002125f8        0x8 
 .text._strtoul_r
                0x00212600      0x1b1 C:/usr/xtensa/XtDevTools/install/builds/RI-2019.1-win32/nxp_rt600_RI2019_newlib/xtensa-elf/lib/\libc.a(lib_a-strtoul.o)
                0x00212600                _strtoul_r
 *fill*         0x002127b1        0xf 
 .text.strtoul  0x002127c0       0x19 C:/usr/xtensa/XtDevTools/install/builds/RI-2019.1-win32/nxp_rt600_RI2019_newlib/xtensa-elf/lib/\libc.a(lib_a-strtoul.o)
                                         0x1c (size before relaxing)
                0x002127c0                strtoul
 *fill*         0x002127d9        0x7 
 .text.__sprint_r
                0x002127e0       0x91 C:/usr/xtensa/XtDevTools/install/builds/RI-2019.1-win32/nxp_rt600_RI2019_newlib/xtensa-elf/lib/\libc.a(lib_a-vfiprintf.o)
                0x002127e0                __sprint_r
 *fill*         0x00212871        0xf 
 .text.__sbprintf
                0x00212880       0xb2 C:/usr/xtensa/XtDevTools/install/builds/RI-2019.1-win32/nxp_rt600_RI2019_newlib/xtensa-elf/lib/\libc.a(lib_a-vfiprintf.o)
 *fill*         0x00212932        0xe 
 .text.vfiprintf
                0x00212940       0x1f C:/usr/xtensa/XtDevTools/install/builds/RI-2019.1-win32/nxp_rt600_RI2019_newlib/xtensa-elf/lib/\libc.a(lib_a-vfiprintf.o)
                                         0x22 (size before relaxing)
                0x00212940                vfiprintf
 *fill*         0x0021295f        0x1 
 .text._vfiprintf_r
                0x00212960     0x1423 C:/usr/xtensa/XtDevTools/install/builds/RI-2019.1-win32/nxp_rt600_RI2019_newlib/xtensa-elf/lib/\libc.a(lib_a-vfiprintf.o)
                0x00212960                _vfiprintf_r
 *fill*         0x00213d83        0xd 
 .text.__swsetup_r
                0x00213d90       0xdf C:/usr/xtensa/XtDevTools/install/builds/RI-2019.1-win32/nxp_rt600_RI2019_newlib/xtensa-elf/lib/\libc.a(lib_a-wsetup.o)
                                         0xe2 (size before relaxing)
                0x00213d90                __swsetup_r
 *fill*         0x00213e6f        0x1 
 .text._atexit  0x00213e70       0x30 C:/usr/xtensa/XtDevTools/install/builds/RI-2019.1-win32/nxp_rt600_RI2019_newlib/xtensa-elf/lib/\libc.a(_atexit.o)
                0x00213e70                _atexit
 .text.__call_exitprocs
                0x00213ea0       0xcd C:/usr/xtensa/XtDevTools/install/builds/RI-2019.1-win32/nxp_rt600_RI2019_newlib/xtensa-elf/lib/\libc.a(lib_a-__call_atexit.o)
                0x00213ea0                __call_exitprocs
 *fill*         0x00213f6d        0x3 
 .text.abort    0x00213f70        0xd C:/usr/xtensa/XtDevTools/install/builds/RI-2019.1-win32/nxp_rt600_RI2019_newlib/xtensa-elf/lib/\libc.a(lib_a-abort.o)
                                         0x13 (size before relaxing)
                0x00213f70                abort
 *fill*         0x00213f7d        0x3 
 .text.__sflush_r
                0x00213f80      0x179 C:/usr/xtensa/XtDevTools/install/builds/RI-2019.1-win32/nxp_rt600_RI2019_newlib/xtensa-elf/lib/\libc.a(lib_a-fflush.o)
                0x00213f80                __sflush_r
 *fill*         0x002140f9        0x7 
 .text._fflush_r
                0x00214100       0x2a C:/usr/xtensa/XtDevTools/install/builds/RI-2019.1-win32/nxp_rt600_RI2019_newlib/xtensa-elf/lib/\libc.a(lib_a-fflush.o)
                                         0x2d (size before relaxing)
                0x00214100                _fflush_r
 *fill*         0x0021412a        0x6 
 .text.fflush   0x00214130       0x28 C:/usr/xtensa/XtDevTools/install/builds/RI-2019.1-win32/nxp_rt600_RI2019_newlib/xtensa-elf/lib/\libc.a(lib_a-fflush.o)
                0x00214130                fflush
 *fill*         0x00214158        0x8 
 .text.__sfmoreglue
                0x00214160       0x37 C:/usr/xtensa/XtDevTools/install/builds/RI-2019.1-win32/nxp_rt600_RI2019_newlib/xtensa-elf/lib/\libc.a(lib_a-findfp.o)
                                         0x3a (size before relaxing)
                0x00214160                __sfmoreglue
 *fill*         0x00214197        0x9 
 .text.__sfp    0x002141a0       0xb7 C:/usr/xtensa/XtDevTools/install/builds/RI-2019.1-win32/nxp_rt600_RI2019_newlib/xtensa-elf/lib/\libc.a(lib_a-findfp.o)
                0x002141a0                __sfp
 *fill*         0x00214257        0x9 
 .text._cleanup_r
                0x00214260        0xe C:/usr/xtensa/XtDevTools/install/builds/RI-2019.1-win32/nxp_rt600_RI2019_newlib/xtensa-elf/lib/\libc.a(lib_a-findfp.o)
                                         0x11 (size before relaxing)
                0x00214260                _cleanup_r
 *fill*         0x0021426e        0x2 
 .text._cleanup
                0x00214270        0xd C:/usr/xtensa/XtDevTools/install/builds/RI-2019.1-win32/nxp_rt600_RI2019_newlib/xtensa-elf/lib/\libc.a(lib_a-findfp.o)
                                         0x10 (size before relaxing)
                0x00214270                _cleanup
 *fill*         0x0021427d        0x3 
 .text.__sinit  0x00214280      0x10b C:/usr/xtensa/XtDevTools/install/builds/RI-2019.1-win32/nxp_rt600_RI2019_newlib/xtensa-elf/lib/\libc.a(lib_a-findfp.o)
                0x00214280                __sinit
 *fill*         0x0021438b        0x5 
 .text.__fp_lock_all
                0x00214390       0x13 C:/usr/xtensa/XtDevTools/install/builds/RI-2019.1-win32/nxp_rt600_RI2019_newlib/xtensa-elf/lib/\libc.a(lib_a-findfp.o)
                                         0x19 (size before relaxing)
                0x00214390                __fp_lock_all
 *fill*         0x002143a3        0xd 
 .text.__fp_unlock_all
                0x002143b0       0x13 C:/usr/xtensa/XtDevTools/install/builds/RI-2019.1-win32/nxp_rt600_RI2019_newlib/xtensa-elf/lib/\libc.a(lib_a-findfp.o)
                                         0x19 (size before relaxing)
                0x002143b0                __fp_unlock_all
 *fill*         0x002143c3        0xd 
 .text._fputwc_r
                0x002143d0      0x104 C:/usr/xtensa/XtDevTools/install/builds/RI-2019.1-win32/nxp_rt600_RI2019_newlib/xtensa-elf/lib/\libc.a(lib_a-fputwc.o)
                0x002143d0                _fputwc_r
 *fill*         0x002144d4        0xc 
 .text.fputwc   0x002144e0       0x28 C:/usr/xtensa/XtDevTools/install/builds/RI-2019.1-win32/nxp_rt600_RI2019_newlib/xtensa-elf/lib/\libc.a(lib_a-fputwc.o)
                                         0x2b (size before relaxing)
                0x002144e0                fputwc
 *fill*         0x00214508        0x8 
 .text._free_r  0x00214510      0x23e C:/usr/xtensa/XtDevTools/install/builds/RI-2019.1-win32/nxp_rt600_RI2019_newlib/xtensa-elf/lib/\libc.a(lib_a-freer.o)
                0x00214510                _free_r
 *fill*         0x0021474e        0x2 
 .text._malloc_trim_r
                0x00214750       0xce C:/usr/xtensa/XtDevTools/install/builds/RI-2019.1-win32/nxp_rt600_RI2019_newlib/xtensa-elf/lib/\libc.a(lib_a-freer.o)
                0x00214750                _malloc_trim_r
 *fill*         0x0021481e        0x2 
 .text.__sfvwrite_r
                0x00214820      0x3b8 C:/usr/xtensa/XtDevTools/install/builds/RI-2019.1-win32/nxp_rt600_RI2019_newlib/xtensa-elf/lib/\libc.a(lib_a-fvwrite.o)
                                        0x3be (size before relaxing)
                0x00214820                __sfvwrite_r
 *fill*         0x00214bd8        0x8 
 .text._setlocale_r
                0x00214be0       0x3a C:/usr/xtensa/XtDevTools/install/builds/RI-2019.1-win32/nxp_rt600_RI2019_newlib/xtensa-elf/lib/\libc.a(lib_a-locale.o)
                0x00214be0                _setlocale_r
 *fill*         0x00214c1a        0x6 
 .text.__locale_charset
                0x00214c20        0x8 C:/usr/xtensa/XtDevTools/install/builds/RI-2019.1-win32/nxp_rt600_RI2019_newlib/xtensa-elf/lib/\libc.a(lib_a-locale.o)
                0x00214c20                __locale_charset
 *fill*         0x00214c28        0x8 
 .text.__locale_mb_cur_max
                0x00214c30        0xa C:/usr/xtensa/XtDevTools/install/builds/RI-2019.1-win32/nxp_rt600_RI2019_newlib/xtensa-elf/lib/\libc.a(lib_a-locale.o)
                0x00214c30                __locale_mb_cur_max
 *fill*         0x00214c3a        0x6 
 .text.__locale_msgcharset
                0x00214c40        0x8 C:/usr/xtensa/XtDevTools/install/builds/RI-2019.1-win32/nxp_rt600_RI2019_newlib/xtensa-elf/lib/\libc.a(lib_a-locale.o)
                0x00214c40                __locale_msgcharset
 *fill*         0x00214c48        0x8 
 .text.__locale_cjk_lang
                0x00214c50        0xa C:/usr/xtensa/XtDevTools/install/builds/RI-2019.1-win32/nxp_rt600_RI2019_newlib/xtensa-elf/lib/\libc.a(lib_a-locale.o)
                0x00214c50                __locale_cjk_lang
 *fill*         0x00214c5a        0x6 
 .text._localeconv_r
                0x00214c60        0x8 C:/usr/xtensa/XtDevTools/install/builds/RI-2019.1-win32/nxp_rt600_RI2019_newlib/xtensa-elf/lib/\libc.a(lib_a-locale.o)
                0x00214c60                _localeconv_r
 *fill*         0x00214c68        0x8 
 .text.setlocale
                0x00214c70       0x18 C:/usr/xtensa/XtDevTools/install/builds/RI-2019.1-win32/nxp_rt600_RI2019_newlib/xtensa-elf/lib/\libc.a(lib_a-locale.o)
                0x00214c70                setlocale
 *fill*         0x00214c88        0x8 
 .text.localeconv
                0x00214c90       0x12 C:/usr/xtensa/XtDevTools/install/builds/RI-2019.1-win32/nxp_rt600_RI2019_newlib/xtensa-elf/lib/\libc.a(lib_a-locale.o)
                0x00214c90                localeconv
 *fill*         0x00214ca2        0xe 
 .text.__smakebuf_r
                0x00214cb0      0x106 C:/usr/xtensa/XtDevTools/install/builds/RI-2019.1-win32/nxp_rt600_RI2019_newlib/xtensa-elf/lib/\libc.a(lib_a-makebuf.o)
                0x00214cb0                __smakebuf_r
 *fill*         0x00214db6        0xa 
 .text.memchr   0x00214dc0       0x8c C:/usr/xtensa/XtDevTools/install/builds/RI-2019.1-win32/nxp_rt600_RI2019_newlib/xtensa-elf/lib/\libc.a(lib_a-memchr.o)
                0x00214dc0                memchr
 *fill*         0x00214e4c        0x4 
 .text._realloc_r
                0x00214e50      0x51c C:/usr/xtensa/XtDevTools/install/builds/RI-2019.1-win32/nxp_rt600_RI2019_newlib/xtensa-elf/lib/\libc.a(lib_a-reallocr.o)
                0x00214e50                _realloc_r
 *fill*         0x0021536c        0x4 
 .text._init_signal_r
                0x00215370       0x58 C:/usr/xtensa/XtDevTools/install/builds/RI-2019.1-win32/nxp_rt600_RI2019_newlib/xtensa-elf/lib/\libc.a(lib_a-signal.o)
                0x00215370                _init_signal_r
 *fill*         0x002153c8        0x8 
 .text._signal_r
                0x002153d0       0x42 C:/usr/xtensa/XtDevTools/install/builds/RI-2019.1-win32/nxp_rt600_RI2019_newlib/xtensa-elf/lib/\libc.a(lib_a-signal.o)
                0x002153d0                _signal_r
 *fill*         0x00215412        0xe 
 .text._raise_r
                0x00215420       0x63 C:/usr/xtensa/XtDevTools/install/builds/RI-2019.1-win32/nxp_rt600_RI2019_newlib/xtensa-elf/lib/\libc.a(lib_a-signal.o)
                                         0x66 (size before relaxing)
                0x00215420                _raise_r
 *fill*         0x00215483        0xd 
 .text.__sigtramp_r
                0x00215490       0x4e C:/usr/xtensa/XtDevTools/install/builds/RI-2019.1-win32/nxp_rt600_RI2019_newlib/xtensa-elf/lib/\libc.a(lib_a-signal.o)
                                         0x51 (size before relaxing)
                0x00215490                __sigtramp_r
 *fill*         0x002154de        0x2 
 .text.raise    0x002154e0       0x14 C:/usr/xtensa/XtDevTools/install/builds/RI-2019.1-win32/nxp_rt600_RI2019_newlib/xtensa-elf/lib/\libc.a(lib_a-signal.o)
                0x002154e0                raise
 *fill*         0x002154f4        0xc 
 .text.signal   0x00215500       0x18 C:/usr/xtensa/XtDevTools/install/builds/RI-2019.1-win32/nxp_rt600_RI2019_newlib/xtensa-elf/lib/\libc.a(lib_a-signal.o)
                0x00215500                signal
 *fill*         0x00215518        0x8 
 .text._init_signal
                0x00215520       0x12 C:/usr/xtensa/XtDevTools/install/builds/RI-2019.1-win32/nxp_rt600_RI2019_newlib/xtensa-elf/lib/\libc.a(lib_a-signal.o)
                0x00215520                _init_signal
 *fill*         0x00215532        0xe 
 .text.__sigtramp
                0x00215540       0x14 C:/usr/xtensa/XtDevTools/install/builds/RI-2019.1-win32/nxp_rt600_RI2019_newlib/xtensa-elf/lib/\libc.a(lib_a-signal.o)
                0x00215540                __sigtramp
 *fill*         0x00215554        0xc 
 .text.__sread  0x00215560       0x36 C:/usr/xtensa/XtDevTools/install/builds/RI-2019.1-win32/nxp_rt600_RI2019_newlib/xtensa-elf/lib/\libc.a(lib_a-stdio.o)
                0x00215560                __sread
 *fill*         0x00215596        0xa 
 .text.__swrite
                0x002155a0       0x3d C:/usr/xtensa/XtDevTools/install/builds/RI-2019.1-win32/nxp_rt600_RI2019_newlib/xtensa-elf/lib/\libc.a(lib_a-stdio.o)
                                         0x40 (size before relaxing)
                0x002155a0                __swrite
 *fill*         0x002155dd        0x3 
 .text.__sseek  0x002155e0       0x3f C:/usr/xtensa/XtDevTools/install/builds/RI-2019.1-win32/nxp_rt600_RI2019_newlib/xtensa-elf/lib/\libc.a(lib_a-stdio.o)
                0x002155e0                __sseek
 *fill*         0x0021561f        0x1 
 .text.__sclose
                0x00215620       0x10 C:/usr/xtensa/XtDevTools/install/builds/RI-2019.1-win32/nxp_rt600_RI2019_newlib/xtensa-elf/lib/\libc.a(lib_a-stdio.o)
                                         0x13 (size before relaxing)
                0x00215620                __sclose
 *fill*         0x00215630        0x0 
 .text.strcmp   0x00215630      0x14b C:/usr/xtensa/XtDevTools/install/builds/RI-2019.1-win32/nxp_rt600_RI2019_newlib/xtensa-elf/lib/\libc.a(lib_a-strcmp.o)
                0x00215630                strcmp
 *fill*         0x0021577b        0x5 
 .text.__swbuf_r
                0x00215780       0xc5 C:/usr/xtensa/XtDevTools/install/builds/RI-2019.1-win32/nxp_rt600_RI2019_newlib/xtensa-elf/lib/\libc.a(lib_a-wbuf.o)
                                         0xc8 (size before relaxing)
                0x00215780                __swbuf_r
 *fill*         0x00215845        0xb 
 .text.__swbuf  0x00215850       0x18 C:/usr/xtensa/XtDevTools/install/builds/RI-2019.1-win32/nxp_rt600_RI2019_newlib/xtensa-elf/lib/\libc.a(lib_a-wbuf.o)
                0x00215850                __swbuf
 *fill*         0x00215868        0x8 
 .text._wcrtomb_r
                0x00215870       0x59 C:/usr/xtensa/XtDevTools/install/builds/RI-2019.1-win32/nxp_rt600_RI2019_newlib/xtensa-elf/lib/\libc.a(lib_a-wcrtomb.o)
                                         0x5c (size before relaxing)
                0x00215870                _wcrtomb_r
 *fill*         0x002158c9        0x7 
 .text.wcrtomb  0x002158d0       0x63 C:/usr/xtensa/XtDevTools/install/builds/RI-2019.1-win32/nxp_rt600_RI2019_newlib/xtensa-elf/lib/\libc.a(lib_a-wcrtomb.o)
                0x002158d0                wcrtomb
 *fill*         0x00215933        0xd 
 .text._wctomb_r
                0x00215940       0x22 C:/usr/xtensa/XtDevTools/install/builds/RI-2019.1-win32/nxp_rt600_RI2019_newlib/xtensa-elf/lib/\libc.a(lib_a-wctomb_r.o)
                                         0x25 (size before relaxing)
                0x00215940                _wctomb_r
 *fill*         0x00215962        0xe 
 .text._isatty_r
                0x00215970       0x2c C:/usr/xtensa/XtDevTools/install/builds/RI-2019.1-win32/nxp_rt600_RI2019_newlib/xtensa-elf/lib/\libc.a(isatty.o)
                0x00215970                _isatty_r
 *fill*         0x0021599c        0x4 
 .text._fclose_r
                0x002159a0       0xa3 C:/usr/xtensa/XtDevTools/install/builds/RI-2019.1-win32/nxp_rt600_RI2019_newlib/xtensa-elf/lib/\libc.a(lib_a-fclose.o)
                                         0xa6 (size before relaxing)
                0x002159a0                _fclose_r
 *fill*         0x00215a43        0xd 
 .text.fclose   0x00215a50       0x14 C:/usr/xtensa/XtDevTools/install/builds/RI-2019.1-win32/nxp_rt600_RI2019_newlib/xtensa-elf/lib/\libc.a(lib_a-fclose.o)
                0x00215a50                fclose
 *fill*         0x00215a64        0xc 
 .text          0x00215a70       0x74 C:/usr/xtensa/XtDevTools/install/builds/RI-2019.1-win32/nxp_rt600_RI2019_newlib/xtensa-elf/lib/\libgdbio.a(close.o)
                0x00215a70                _close_r
 *fill*         0x00215ae4        0xc 
 .text          0x00215af0      0x181 C:/usr/xtensa/XtDevTools/install/builds/RI-2019.1-win32/nxp_rt600_RI2019_newlib/xtensa-elf/lib/\libgdbio.a(fstat.o)
                0x00215af0                _fstat_r
 *fill*         0x00215c71        0xf 
 .text          0x00215c80       0x1d C:/usr/xtensa/XtDevTools/install/builds/RI-2019.1-win32/nxp_rt600_RI2019_newlib/xtensa-elf/lib/\libgdbio.a(kill.o)
                                         0x20 (size before relaxing)
                0x00215c80                _kill_r
 *fill*         0x00215c9d        0x3 
 .text          0x00215ca0       0x76 C:/usr/xtensa/XtDevTools/install/builds/RI-2019.1-win32/nxp_rt600_RI2019_newlib/xtensa-elf/lib/\libgdbio.a(lseek.o)
                0x00215ca0                _lseek_r
 *fill*         0x00215d16        0xa 
 .text          0x00215d20       0x70 C:/usr/xtensa/XtDevTools/install/builds/RI-2019.1-win32/nxp_rt600_RI2019_newlib/xtensa-elf/lib/\libgdbio.a(read.o)
                0x00215d20                _read_r
 .text          0x00215d90      0x300 C:/usr/xtensa/XtDevTools/install/builds/RI-2019.1-win32/nxp_rt600_RI2019_newlib/xtensa-elf/lib/\libgdbio.a(semihosting.o)
                0x00215d90                _gdbio_to_xtensa_errno
                0x00215e80                _gdbio_from_xtensa_flags
                0x00215ec8                _gdbio_from_xtensa_mode
                0x00215f80                _gdbio_from_xtensa_whence
                0x00215f9c                _gdbio_big_endian_4
                0x00215fbc                _gdbio_big_endian_8
                0x0021600c                _gdbio_map_fd
                0x00216030                _gdbio_close_fd
                0x00216054                _gdbio_new_fd
                0x00216080                _gdbio_set_fd
 .text          0x00216090       0x70 C:/usr/xtensa/XtDevTools/install/builds/RI-2019.1-win32/nxp_rt600_RI2019_newlib/xtensa-elf/lib/\libgdbio.a(write.o)
                0x00216090                _write_r
 .text          0x00216100       0x1d C:/usr/xtensa/XtDevTools/install/builds/RI-2019.1-win32/nxp_rt600_RI2019_newlib/xtensa-elf/arch/lib/\libhandlers-board.a(exit.o)
                                         0x20 (size before relaxing)
                0x00216100                _exit
 *fill*         0x0021611d        0x3 
 .text          0x00216120      0x140 C:/usr/xtensa/XtDevTools/install/builds/RI-2019.1-win32/nxp_rt600_RI2019_newlib/xtensa-elf/arch/lib/\libhal.a(windowspill_asm.o)
                0x00216120                xthal_spill_registers_into_stack_nw
                0x00216120                xthal_window_spill_nw
                0x0021623c                xthal_window_spill
 .text.xthal_set_region_attribute
                0x00216260      0x170 C:/usr/xtensa/XtDevTools/install/builds/RI-2019.1-win32/nxp_rt600_RI2019_newlib/xtensa-elf/arch/lib/\libhal.a(attribute.o)
                                        0x176 (size before relaxing)
                0x00216260                xthal_set_region_attribute
 *fill*         0x002163d0        0x0 
 .text          0x002163d0       0x20 C:/usr/xtensa/XtDevTools/install/builds/RI-2019.1-win32/nxp_rt600_RI2019_newlib/xtensa-elf/arch/lib/\libhal.a(cache_attr--get_cacheattr.o)
                0x002163d0                xthal_get_dcacheattr
                0x002163d0                xthal_get_cacheattr
 *fill*         0x002163f0        0x0 
 .text          0x002163f0       0x60 C:/usr/xtensa/XtDevTools/install/builds/RI-2019.1-win32/nxp_rt600_RI2019_newlib/xtensa-elf/arch/lib/\libhal.a(cache_attr--set_cacheattr.o)
                0x002163f0                xthal_set_cacheattr
 .text          0x00216450       0x1e C:/usr/xtensa/XtDevTools/install/builds/RI-2019.1-win32/nxp_rt600_RI2019_newlib/xtensa-elf/lib/xcc/crtend.o
 *fill*         0x0021646e        0x0 
 *fill*         0x0021646e        0x0 
 .text          0x0021646e        0x0 C:/usr/xtensa/XtDevTools/install/builds/RI-2019.1-win32/nxp_rt600_RI2019_newlib/xtensa-elf/lib/xcc/crti.o
 .text          0x0021646e        0x0 C:/usr/xtensa/XtDevTools/install/builds/RI-2019.1-win32/nxp_rt600_RI2019_newlib/xtensa-elf/arch/lib/_sharedvectors.o
 .text          0x0021646e        0x0 C:/usr/xtensa/XtDevTools/install/builds/RI-2019.1-win32/nxp_rt600_RI2019_newlib/xtensa-elf/arch/lib/_vectors.o
 *fill*         0x0021646e        0x0 
 *fill*         0x0021646e        0x0 
 *fill*         0x0021646e        0x0 
 *fill*         0x0021646e        0x0 
 *fill*         0x0021646e        0x0 
 *fill*         0x0021646e        0x0 
 *fill*         0x0021646e        0x0 
 *fill*         0x0021646e        0x0 
 *fill*         0x0021646e        0x0 
 *fill*         0x0021646e        0x0 
 *fill*         0x0021646e        0x0 
 *fill*         0x0021646e        0x0 
 *fill*         0x0021646e        0x0 
 *fill*         0x0021646e        0x0 
 *fill*         0x0021646e        0x0 
 *fill*         0x0021646e        0x0 
 *fill*         0x0021646e        0x0 
 *fill*         0x0021646e        0x0 
 *fill*         0x0021646e        0x0 
 *fill*         0x0021646e        0x0 
 *fill*         0x0021646e        0x0 
 *fill*         0x0021646e        0x0 
 *fill*         0x0021646e        0x0 
 *fill*         0x0021646e        0x0 
 *fill*         0x0021646e        0x0 
 *fill*         0x0021646e        0x0 
 *fill*         0x0021646e        0x0 
 *fill*         0x0021646e        0x0 
 *fill*         0x0021646e        0x0 
 *fill*         0x0021646e        0x0 
 *fill*         0x0021646e        0x0 
 *fill*         0x0021646e        0x0 
 *fill*         0x0021646e        0x0 
 *fill*         0x0021646e        0x0 
 *fill*         0x0021646e        0x0 
 *fill*         0x0021646e        0x0 
 *fill*         0x0021646e        0x0 
 .text          0x0021646e        0x0 C:/usr/xtensa/XtDevTools/install/builds/RI-2019.1-win32/nxp_rt600_RI2019_newlib/xtensa-elf/arch/lib/\libxos.a(xos.o)
 *fill*         0x0021646e        0x0 
 *fill*         0x0021646e        0x0 
 *fill*         0x0021646e        0x0 
 *fill*         0x0021646e        0x0 
 *fill*         0x0021646e        0x0 
 *fill*         0x0021646e        0x0 
 *fill*         0x0021646e        0x0 
 *fill*         0x0021646e        0x0 
 *fill*         0x0021646e        0x0 
 *fill*         0x0021646e        0x0 
 .text          0x0021646e        0x0 C:/usr/xtensa/XtDevTools/install/builds/RI-2019.1-win32/nxp_rt600_RI2019_newlib/xtensa-elf/arch/lib/\libxos.a(xos_int_table.o)
 *fill*         0x0021646e        0x0 
 .text          0x0021646e        0x0 C:/usr/xtensa/XtDevTools/install/builds/RI-2019.1-win32/nxp_rt600_RI2019_newlib/xtensa-elf/arch/lib/\libxos.a(xos_start_main.o)
 .text          0x0021646e        0x0 C:/usr/xtensa/XtDevTools/install/builds/RI-2019.1-win32/nxp_rt600_RI2019_newlib/xtensa-elf/arch/lib/\libxos.a(xos_thread.o)
 *fill*         0x0021646e        0x2 
 .text.xos_q_remove
                0x00216470       0x1c C:/usr/xtensa/XtDevTools/install/builds/RI-2019.1-win32/nxp_rt600_RI2019_newlib/xtensa-elf/arch/lib/\libxos.a(xos_thread.o)
                0x00216470                xos_q_remove
 *fill*         0x0021648c        0x0 
 .text.xos_q_push
                0x0021648c       0x10 C:/usr/xtensa/XtDevTools/install/builds/RI-2019.1-win32/nxp_rt600_RI2019_newlib/xtensa-elf/arch/lib/\libxos.a(xos_thread.o)
                0x0021648c                xos_q_push
 .text.xos_q_insert
                0x0021649c       0x19 C:/usr/xtensa/XtDevTools/install/builds/RI-2019.1-win32/nxp_rt600_RI2019_newlib/xtensa-elf/arch/lib/\libxos.a(xos_thread.o)
                0x0021649c                xos_q_insert
 *fill*         0x002164b5        0x3 
 .text.xos_q_pri_insert
                0x002164b8       0x2e C:/usr/xtensa/XtDevTools/install/builds/RI-2019.1-win32/nxp_rt600_RI2019_newlib/xtensa-elf/arch/lib/\libxos.a(xos_thread.o)
                0x002164b8                xos_q_pri_insert
 *fill*         0x002164e6        0x2 
 .text.xos_thread_setup_tie_save
                0x002164e8       0x4a C:/usr/xtensa/XtDevTools/install/builds/RI-2019.1-win32/nxp_rt600_RI2019_newlib/xtensa-elf/arch/lib/\libxos.a(xos_thread.o)
                0x002164e8                xos_thread_setup_tie_save
 *fill*         0x00216532        0x0 
 *fill*         0x00216532        0x0 
 *fill*         0x00216532        0x0 
 *fill*         0x00216532        0x0 
 *fill*         0x00216532        0x0 
 *fill*         0x00216532        0x0 
 *fill*         0x00216532        0x0 
 *fill*         0x00216532        0x0 
 *fill*         0x00216532        0x0 
 *fill*         0x00216532        0x0 
 *fill*         0x00216532        0x0 
 *fill*         0x00216532        0x0 
 *fill*         0x00216532        0x0 
 *fill*         0x00216532        0x0 
 *fill*         0x00216532        0x0 
 *fill*         0x00216532        0x0 
 *fill*         0x00216532        0x0 
 *fill*         0x00216532        0x0 
 *fill*         0x00216532        0x0 
 *fill*         0x00216532        0x2 
 .text.xos_set_sched_interrupt
                0x00216534        0x7 C:/usr/xtensa/XtDevTools/install/builds/RI-2019.1-win32/nxp_rt600_RI2019_newlib/xtensa-elf/arch/lib/\libxos.a(xos_thread.o)
                0x00216534                xos_set_sched_interrupt
 *fill*         0x0021653b        0x0 
 *fill*         0x0021653b        0x0 
 *fill*         0x0021653b        0x0 
 .text          0x0021653b        0x0 C:/usr/xtensa/XtDevTools/install/builds/RI-2019.1-win32/nxp_rt600_RI2019_newlib/xtensa-elf/arch/lib/\libxos.a(xos_timer.o)
 *fill*         0x0021653b        0x0 
 *fill*         0x0021653b        0x0 
 *fill*         0x0021653b        0x1 
 .text.xos_timer_init
                0x0021653c       0x20 C:/usr/xtensa/XtDevTools/install/builds/RI-2019.1-win32/nxp_rt600_RI2019_newlib/xtensa-elf/arch/lib/\libxos.a(xos_timer.o)
                0x0021653c                xos_timer_init
 *fill*         0x0021655c        0x0 
 *fill*         0x0021655c        0x0 
 *fill*         0x0021655c        0x0 
 *fill*         0x0021655c        0x0 
 *fill*         0x0021655c        0x0 
 *fill*         0x0021655c        0x0 
 *fill*         0x0021655c        0x0 
 .text          0x0021655c        0x0 C:/usr/xtensa/XtDevTools/install/builds/RI-2019.1-win32/nxp_rt600_RI2019_newlib/xtensa-elf/arch/lib/\libxos.a(xos_int_stack.o)
 *fill*         0x0021655c        0x0 
 .text          0x0021655c       0x2b C:/usr/xtensa/XtDevTools/install/builds/RI-2019.1-win32/nxp_rt600_RI2019_newlib/xtensa-elf/arch/lib/\libxos.a(xos_vectors.o)
                0x0021655c                xos_debug_dispatch
 .text          0x00216587        0x0 C:/usr/xtensa/XtDevTools/install/builds/RI-2019.1-win32/nxp_rt600_RI2019_newlib/xtensa-elf/arch/lib/\libxos.a(xos_window_vectors.o)
 *fill*         0x00216587        0x0 
 .text          0x00216587        0x0 C:/usr/xtensa/XtDevTools/install/builds/RI-2019.1-win32/nxp_rt600_RI2019_newlib/xtensa-elf/arch/lib/\libxos.a(xos_clib.o)
 *fill*         0x00216587        0x0 
 *fill*         0x00216587        0x0 
 *fill*         0x00216587        0x0 
 *fill*         0x00216587        0x0 
 *fill*         0x00216587        0x0 
 *fill*         0x00216587        0x0 
 *fill*         0x00216587        0x0 
 *fill*         0x00216587        0x0 
 *fill*         0x00216587        0x0 
 .text          0x00216587        0x0 C:/usr/xtensa/XtDevTools/install/builds/RI-2019.1-win32/nxp_rt600_RI2019_newlib/xtensa-elf/arch/lib/\libxos.a(xos_mutex.o)
 *fill*         0x00216587        0x0 
 *fill*         0x00216587        0x0 
 *fill*         0x00216587        0x0 
 *fill*         0x00216587        0x0 
 *fill*         0x00216587        0x0 
 *fill*         0x00216587        0x0 
 *fill*         0x00216587        0x0 
 .text          0x00216587        0x0 C:/usr/xtensa/XtDevTools/install/builds/RI-2019.1-win32/nxp_rt600_RI2019_newlib/xtensa-elf/arch/lib/\libxos.a(xos_once.o)
 *fill*         0x00216587        0x0 
 .text          0x00216587        0x0 C:/usr/xtensa/XtDevTools/install/builds/RI-2019.1-win32/nxp_rt600_RI2019_newlib/xtensa-elf/arch/lib/\libxos.a(xos_system_timer.o)
 *fill*         0x00216587        0x0 
 *fill*         0x00216587        0x0 
 *fill*         0x00216587        0x0 
 *fill*         0x00216587        0x0 
 *fill*         0x00216587        0x9 
 .text          0x00216590       0x17 C:/usr/xtensa/XtDevTools/install/builds/RI-2019.1-win32/nxp_rt600_RI2019_newlib/xtensa-elf/lib/xcc/\libgcc.a(_muldi3.o)
                0x00216590                __muldi3
 *fill*         0x002165a7        0x9 
 .text          0x002165b0      0x275 C:/usr/xtensa/XtDevTools/install/builds/RI-2019.1-win32/nxp_rt600_RI2019_newlib/xtensa-elf/lib/xcc/\libgcc.a(_udivdi3.o)
                0x002165b0                __udivdi3
 *fill*         0x00216825        0x0 
 *fill*         0x00216825        0xb 
 .text          0x00216830        0x0 C:/usr/xtensa/XtDevTools/install/builds/RI-2019.1-win32/nxp_rt600_RI2019_newlib/xtensa-elf/lib/\libc.a(clibrary_init.o)
 *fill*         0x00216830        0x0 
 *fill*         0x00216830        0x0 
 .text          0x00216830        0x0 C:/usr/xtensa/XtDevTools/install/builds/RI-2019.1-win32/nxp_rt600_RI2019_newlib/xtensa-elf/lib/\libc.a(lib_a-assert.o)
 *fill*         0x00216830        0x0 
 .text          0x00216830        0x0 C:/usr/xtensa/XtDevTools/install/builds/RI-2019.1-win32/nxp_rt600_RI2019_newlib/xtensa-elf/lib/\libc.a(lib_a-environ.o)
 *fill*         0x00216830        0x0 
 *fill*         0x00216830        0x0 
 .text          0x00216830        0x0 C:/usr/xtensa/XtDevTools/install/builds/RI-2019.1-win32/nxp_rt600_RI2019_newlib/xtensa-elf/lib/\libc.a(lib_a-exit.o)
 *fill*         0x00216830        0x0 
 .text          0x00216830        0x0 C:/usr/xtensa/XtDevTools/install/builds/RI-2019.1-win32/nxp_rt600_RI2019_newlib/xtensa-elf/lib/\libc.a(lib_a-fiprintf.o)
 *fill*         0x00216830        0x0 
 .text          0x00216830        0x0 C:/usr/xtensa/XtDevTools/install/builds/RI-2019.1-win32/nxp_rt600_RI2019_newlib/xtensa-elf/lib/\libc.a(lib_a-impure.o)
 *fill*         0x00216830        0x0 
 .text          0x00216830        0x0 C:/usr/xtensa/XtDevTools/install/builds/RI-2019.1-win32/nxp_rt600_RI2019_newlib/xtensa-elf/lib/\libc.a(lib_a-malloc.o)
 *fill*         0x00216830        0x0 
 *fill*         0x00216830        0x0 
 .text          0x00216830        0x0 C:/usr/xtensa/XtDevTools/install/builds/RI-2019.1-win32/nxp_rt600_RI2019_newlib/xtensa-elf/lib/\libc.a(lib_a-mallocr.o)
 *fill*         0x00216830        0x0 
 .literal.memcpy
                0x00216830        0x0 C:/usr/xtensa/XtDevTools/install/builds/RI-2019.1-win32/nxp_rt600_RI2019_newlib/xtensa-elf/lib/\libc.a(lib_a-memcpy.o)
 .text          0x00216830        0x0 C:/usr/xtensa/XtDevTools/install/builds/RI-2019.1-win32/nxp_rt600_RI2019_newlib/xtensa-elf/lib/\libc.a(lib_a-memcpy.o)
 *fill*         0x00216830        0x0 
 .text.memcpy   0x00216830      0x176 C:/usr/xtensa/XtDevTools/install/builds/RI-2019.1-win32/nxp_rt600_RI2019_newlib/xtensa-elf/lib/\libc.a(lib_a-memcpy.o)
                0x00216830                memcpy
 *fill*         0x002169a6        0x2 
 .literal.memset
                0x002169a8        0x0 C:/usr/xtensa/XtDevTools/install/builds/RI-2019.1-win32/nxp_rt600_RI2019_newlib/xtensa-elf/lib/\libc.a(lib_a-memset.o)
 .text          0x002169a8        0x0 C:/usr/xtensa/XtDevTools/install/builds/RI-2019.1-win32/nxp_rt600_RI2019_newlib/xtensa-elf/lib/\libc.a(lib_a-memset.o)
 *fill*         0x002169a8        0x8 
 .text.memset   0x002169b0       0x8f C:/usr/xtensa/XtDevTools/install/builds/RI-2019.1-win32/nxp_rt600_RI2019_newlib/xtensa-elf/lib/\libc.a(lib_a-memset.o)
                0x002169b0                memset
 *fill*         0x00216a3f        0x0 
 *fill*         0x00216a3f        0x1 
 .text          0x00216a40        0x0 C:/usr/xtensa/XtDevTools/install/builds/RI-2019.1-win32/nxp_rt600_RI2019_newlib/xtensa-elf/lib/\libc.a(lib_a-reent.o)
 *fill*         0x00216a40        0x0 
 *fill*         0x00216a40        0x0 
 .text          0x00216a40        0x0 C:/usr/xtensa/XtDevTools/install/builds/RI-2019.1-win32/nxp_rt600_RI2019_newlib/xtensa-elf/lib/\libc.a(lib_a-strlen.o)
 *fill*         0x00216a40        0x0 
 *fill*         0x00216a40        0x0 
 .text          0x00216a40        0x0 C:/usr/xtensa/XtDevTools/install/builds/RI-2019.1-win32/nxp_rt600_RI2019_newlib/xtensa-elf/lib/\libc.a(lib_a-strtoul.o)
 *fill*         0x00216a40        0x0 
 *fill*         0x00216a40        0x0 
 .text          0x00216a40        0x0 C:/usr/xtensa/XtDevTools/install/builds/RI-2019.1-win32/nxp_rt600_RI2019_newlib/xtensa-elf/lib/\libc.a(lib_a-vfiprintf.o)
 *fill*         0x00216a40        0x0 
 *fill*         0x00216a40        0x0 
 *fill*         0x00216a40        0x0 
 *fill*         0x00216a40        0x0 
 *fill*         0x00216a40        0x0 
 .text          0x00216a40        0x0 C:/usr/xtensa/XtDevTools/install/builds/RI-2019.1-win32/nxp_rt600_RI2019_newlib/xtensa-elf/lib/\libc.a(lib_a-wsetup.o)
 *fill*         0x00216a40        0x0 
 *fill*         0x00216a40        0x0 
 .text          0x00216a40        0x0 C:/usr/xtensa/XtDevTools/install/builds/RI-2019.1-win32/nxp_rt600_RI2019_newlib/xtensa-elf/lib/\libc.a(_atexit.o)
 *fill*         0x00216a40        0x0 
 .text          0x00216a40        0x0 C:/usr/xtensa/XtDevTools/install/builds/RI-2019.1-win32/nxp_rt600_RI2019_newlib/xtensa-elf/lib/\libc.a(lib_a-__call_atexit.o)
 *fill*         0x00216a40        0x0 
 *fill*         0x00216a40        0x0 
 .text          0x00216a40        0x0 C:/usr/xtensa/XtDevTools/install/builds/RI-2019.1-win32/nxp_rt600_RI2019_newlib/xtensa-elf/lib/\libc.a(lib_a-abort.o)
 .text          0x00216a40        0x0 C:/usr/xtensa/XtDevTools/install/builds/RI-2019.1-win32/nxp_rt600_RI2019_newlib/xtensa-elf/lib/\libc.a(lib_a-ctype_.o)
 *fill*         0x00216a40        0x0 
 *fill*         0x00216a40        0x0 
 .text          0x00216a40        0x0 C:/usr/xtensa/XtDevTools/install/builds/RI-2019.1-win32/nxp_rt600_RI2019_newlib/xtensa-elf/lib/\libc.a(lib_a-fflush.o)
 *fill*         0x00216a40        0x0 
 *fill*         0x00216a40        0x0 
 .text          0x00216a40        0x0 C:/usr/xtensa/XtDevTools/install/builds/RI-2019.1-win32/nxp_rt600_RI2019_newlib/xtensa-elf/lib/\libc.a(lib_a-findfp.o)
 *fill*         0x00216a40        0x0 
 *fill*         0x00216a40        0x0 
 *fill*         0x00216a40        0x0 
 *fill*         0x00216a40        0x0 
 .text.__sfp_lock_acquire
                0x00216a40        0x5 C:/usr/xtensa/XtDevTools/install/builds/RI-2019.1-win32/nxp_rt600_RI2019_newlib/xtensa-elf/lib/\libc.a(lib_a-findfp.o)
                0x00216a40                __sfp_lock_acquire
 *fill*         0x00216a45        0xb 
 .text.__sfp_lock_release
                0x00216a50        0x5 C:/usr/xtensa/XtDevTools/install/builds/RI-2019.1-win32/nxp_rt600_RI2019_newlib/xtensa-elf/lib/\libc.a(lib_a-findfp.o)
                0x00216a50                __sfp_lock_release
 *fill*         0x00216a55        0xb 
 .text.__sinit_lock_acquire
                0x00216a60        0x5 C:/usr/xtensa/XtDevTools/install/builds/RI-2019.1-win32/nxp_rt600_RI2019_newlib/xtensa-elf/lib/\libc.a(lib_a-findfp.o)
                0x00216a60                __sinit_lock_acquire
 *fill*         0x00216a65        0xb 
 .text.__sinit_lock_release
                0x00216a70        0x5 C:/usr/xtensa/XtDevTools/install/builds/RI-2019.1-win32/nxp_rt600_RI2019_newlib/xtensa-elf/lib/\libc.a(lib_a-findfp.o)
                0x00216a70                __sinit_lock_release
 *fill*         0x00216a75        0xb 
 .text.__fp_lock
                0x00216a80        0x7 C:/usr/xtensa/XtDevTools/install/builds/RI-2019.1-win32/nxp_rt600_RI2019_newlib/xtensa-elf/lib/\libc.a(lib_a-findfp.o)
 *fill*         0x00216a87        0x9 
 .text.__fp_unlock
                0x00216a90        0x7 C:/usr/xtensa/XtDevTools/install/builds/RI-2019.1-win32/nxp_rt600_RI2019_newlib/xtensa-elf/lib/\libc.a(lib_a-findfp.o)
 *fill*         0x00216a97        0x0 
 *fill*         0x00216a97        0x0 
 *fill*         0x00216a97        0x0 
 *fill*         0x00216a97        0x9 
 .text          0x00216aa0        0x0 C:/usr/xtensa/XtDevTools/install/builds/RI-2019.1-win32/nxp_rt600_RI2019_newlib/xtensa-elf/lib/\libc.a(lib_a-fputwc.o)
 *fill*         0x00216aa0        0x0 
 *fill*         0x00216aa0        0x0 
 .text          0x00216aa0        0x0 C:/usr/xtensa/XtDevTools/install/builds/RI-2019.1-win32/nxp_rt600_RI2019_newlib/xtensa-elf/lib/\libc.a(lib_a-freer.o)
 *fill*         0x00216aa0        0x0 
 *fill*         0x00216aa0        0x0 
 *fill*         0x00216aa0        0x0 
 .text          0x00216aa0        0x0 C:/usr/xtensa/XtDevTools/install/builds/RI-2019.1-win32/nxp_rt600_RI2019_newlib/xtensa-elf/lib/\libc.a(lib_a-fvwrite.o)
 *fill*         0x00216aa0        0x0 
 .text          0x00216aa0        0x0 C:/usr/xtensa/XtDevTools/install/builds/RI-2019.1-win32/nxp_rt600_RI2019_newlib/xtensa-elf/lib/\libc.a(lib_a-fwalk.o)
 .text._fwalk   0x00216aa0       0x54 C:/usr/xtensa/XtDevTools/install/builds/RI-2019.1-win32/nxp_rt600_RI2019_newlib/xtensa-elf/lib/\libc.a(lib_a-fwalk.o)
                0x00216aa0                _fwalk
 *fill*         0x00216af4        0xc 
 .text._fwalk_reent
                0x00216b00       0x59 C:/usr/xtensa/XtDevTools/install/builds/RI-2019.1-win32/nxp_rt600_RI2019_newlib/xtensa-elf/lib/\libc.a(lib_a-fwalk.o)
                0x00216b00                _fwalk_reent
 *fill*         0x00216b59        0x0 
 *fill*         0x00216b59        0x7 
 .text          0x00216b60        0x0 C:/usr/xtensa/XtDevTools/install/builds/RI-2019.1-win32/nxp_rt600_RI2019_newlib/xtensa-elf/lib/\libc.a(lib_a-locale.o)
 *fill*         0x00216b60        0x0 
 *fill*         0x00216b60        0x0 
 *fill*         0x00216b60        0x0 
 *fill*         0x00216b60        0x0 
 *fill*         0x00216b60        0x0 
 *fill*         0x00216b60        0x0 
 *fill*         0x00216b60        0x0 
 *fill*         0x00216b60        0x0 
 .text          0x00216b60        0x0 C:/usr/xtensa/XtDevTools/install/builds/RI-2019.1-win32/nxp_rt600_RI2019_newlib/xtensa-elf/lib/\libc.a(lib_a-makebuf.o)
 *fill*         0x00216b60        0x0 
 .text          0x00216b60        0x0 C:/usr/xtensa/XtDevTools/install/builds/RI-2019.1-win32/nxp_rt600_RI2019_newlib/xtensa-elf/lib/\libc.a(lib_a-memchr.o)
 .literal.memmove
                0x00216b60        0x0 C:/usr/xtensa/XtDevTools/install/builds/RI-2019.1-win32/nxp_rt600_RI2019_newlib/xtensa-elf/lib/\libc.a(lib_a-memmove.o)
 *fill*         0x00216b60        0x0 
 .text          0x00216b60        0x0 C:/usr/xtensa/XtDevTools/install/builds/RI-2019.1-win32/nxp_rt600_RI2019_newlib/xtensa-elf/lib/\libc.a(lib_a-memmove.o)
 .text.memmove  0x00216b60       0xe2 C:/usr/xtensa/XtDevTools/install/builds/RI-2019.1-win32/nxp_rt600_RI2019_newlib/xtensa-elf/lib/\libc.a(lib_a-memmove.o)
                0x00216b60                memmove
 *fill*         0x00216c42        0x0 
 *fill*         0x00216c42        0xe 
 .text          0x00216c50        0x0 C:/usr/xtensa/XtDevTools/install/builds/RI-2019.1-win32/nxp_rt600_RI2019_newlib/xtensa-elf/lib/\libc.a(lib_a-reallocr.o)
 .text          0x00216c50        0x0 C:/usr/xtensa/XtDevTools/install/builds/RI-2019.1-win32/nxp_rt600_RI2019_newlib/xtensa-elf/lib/\libc.a(lib_a-signal.o)
 *fill*         0x00216c50        0x0 
 *fill*         0x00216c50        0x0 
 *fill*         0x00216c50        0x0 
 *fill*         0x00216c50        0x0 
 *fill*         0x00216c50        0x0 
 *fill*         0x00216c50        0x0 
 *fill*         0x00216c50        0x0 
 *fill*         0x00216c50        0x0 
 .text          0x00216c50        0x0 C:/usr/xtensa/XtDevTools/install/builds/RI-2019.1-win32/nxp_rt600_RI2019_newlib/xtensa-elf/lib/\libc.a(lib_a-stdio.o)
 *fill*         0x00216c50        0x0 
 .text.__seofread
                0x00216c50        0x7 C:/usr/xtensa/XtDevTools/install/builds/RI-2019.1-win32/nxp_rt600_RI2019_newlib/xtensa-elf/lib/\libc.a(lib_a-stdio.o)
                0x00216c50                __seofread
 *fill*         0x00216c57        0x0 
 *fill*         0x00216c57        0x0 
 *fill*         0x00216c57        0x0 
 .text          0x00216c57        0x0 C:/usr/xtensa/XtDevTools/install/builds/RI-2019.1-win32/nxp_rt600_RI2019_newlib/xtensa-elf/lib/\libc.a(lib_a-strcmp.o)
 *fill*         0x00216c57        0x0 
 *fill*         0x00216c57        0x0 
 *fill*         0x00216c57        0x9 
 .text          0x00216c60        0x0 C:/usr/xtensa/XtDevTools/install/builds/RI-2019.1-win32/nxp_rt600_RI2019_newlib/xtensa-elf/lib/\libc.a(lib_a-wbuf.o)
 *fill*         0x00216c60        0x0 
 *fill*         0x00216c60        0x0 
 .text          0x00216c60        0x0 C:/usr/xtensa/XtDevTools/install/builds/RI-2019.1-win32/nxp_rt600_RI2019_newlib/xtensa-elf/lib/\libc.a(lib_a-wcrtomb.o)
 *fill*         0x00216c60        0x0 
 *fill*         0x00216c60        0x0 
 *fill*         0x00216c60        0x0 
 .text          0x00216c60        0x0 C:/usr/xtensa/XtDevTools/install/builds/RI-2019.1-win32/nxp_rt600_RI2019_newlib/xtensa-elf/lib/\libc.a(lib_a-wctomb_r.o)
 *fill*         0x00216c60        0x0 
 .text.__ascii_wctomb
                0x00216c60       0x24 C:/usr/xtensa/XtDevTools/install/builds/RI-2019.1-win32/nxp_rt600_RI2019_newlib/xtensa-elf/lib/\libc.a(lib_a-wctomb_r.o)
                0x00216c60                __ascii_wctomb
 *fill*         0x00216c84        0xc 
 .text          0x00216c90        0x0 C:/usr/xtensa/XtDevTools/install/builds/RI-2019.1-win32/nxp_rt600_RI2019_newlib/xtensa-elf/lib/\libc.a(isatty.o)
 .text          0x00216c90        0x0 C:/usr/xtensa/XtDevTools/install/builds/RI-2019.1-win32/nxp_rt600_RI2019_newlib/xtensa-elf/lib/\libc.a(lib_a-fclose.o)
 *fill*         0x00216c90        0x0 
 *fill*         0x00216c90        0x0 
 *fill*         0x00216c90        0x0 
 *fill*         0x00216c90        0x0 
 .text          0x00216c90        0x0 C:/usr/xtensa/XtDevTools/install/builds/RI-2019.1-win32/nxp_rt600_RI2019_newlib/xtensa-elf/lib/\libgdbio.a(libinit.o)
 *fill*         0x00216c90        0x0 
 *fill*         0x00216c90        0x0 
 *fill*         0x00216c90        0x0 
 *fill*         0x00216c90        0x0 
 .text          0x00216c90        0x8 C:/usr/xtensa/XtDevTools/install/builds/RI-2019.1-win32/nxp_rt600_RI2019_newlib/xtensa-elf/lib/\libgdbio.a(syscall.o)
                0x00216c90                _gdbio_syscall
 *fill*         0x00216c98        0x8 
 .text          0x00216ca0        0x7 C:/usr/xtensa/XtDevTools/install/builds/RI-2019.1-win32/nxp_rt600_RI2019_newlib/xtensa-elf/lib/\libgdbio.a(getpid.o)
                0x00216ca0                _getpid_r
 *fill*         0x00216ca7        0x9 
 .text          0x00216cb0        0x5 C:/usr/xtensa/XtDevTools/install/builds/RI-2019.1-win32/nxp_rt600_RI2019_newlib/xtensa-elf/lib/\libgdbio.a(miniboard.o)
                0x00216cb0                board_init
 .text          0x00216cb5        0x0 C:/usr/xtensa/XtDevTools/install/builds/RI-2019.1-win32/nxp_rt600_RI2019_newlib/xtensa-elf/arch/lib/\libhandler-reset.a(reset-vector.o)
 *fill*         0x00216cb5        0x0 
 .text          0x00216cb5        0x0 C:/usr/xtensa/XtDevTools/install/builds/RI-2019.1-win32/nxp_rt600_RI2019_newlib/xtensa-elf/arch/lib/\libhandlers-board.a(memctl_default.o)
 *fill*         0x00216cb5        0x3 
 .literal       0x00216cb8        0x0 C:/usr/xtensa/XtDevTools/install/builds/RI-2019.1-win32/nxp_rt600_RI2019_newlib/xtensa-elf/arch/lib/\libhal.a(cache_asm--dcache_all_writeback.o)
 *fill*         0x00216cb8        0x8 
 .text          0x00216cc0       0x19 C:/usr/xtensa/XtDevTools/install/builds/RI-2019.1-win32/nxp_rt600_RI2019_newlib/xtensa-elf/arch/lib/\libhal.a(cache_asm--dcache_all_writeback.o)
                0x00216cc0                xthal_dcache_all_writeback
 .text          0x00216cd9        0x0 C:/usr/xtensa/XtDevTools/install/builds/RI-2019.1-win32/nxp_rt600_RI2019_newlib/xtensa-elf/arch/lib/\libhal.a(cache_asm--hw_configid0.o)
 .text          0x00216cd9        0x0 C:/usr/xtensa/XtDevTools/install/builds/RI-2019.1-win32/nxp_rt600_RI2019_newlib/xtensa-elf/arch/lib/\libhal.a(cache_asm--hw_configid1.o)
 .text          0x00216cd9        0x0 C:/usr/xtensa/XtDevTools/install/builds/RI-2019.1-win32/nxp_rt600_RI2019_newlib/xtensa-elf/arch/lib/\libhal.a(cache_asm--release_major.o)
 .text          0x00216cd9        0x0 C:/usr/xtensa/XtDevTools/install/builds/RI-2019.1-win32/nxp_rt600_RI2019_newlib/xtensa-elf/arch/lib/\libhal.a(cache_asm--release_minor.o)
 .text          0x00216cd9        0x0 C:/usr/xtensa/XtDevTools/install/builds/RI-2019.1-win32/nxp_rt600_RI2019_newlib/xtensa-elf/arch/lib/\libhal.a(const--intlevel.o)
 .text          0x00216cd9        0x0 C:/usr/xtensa/XtDevTools/install/builds/RI-2019.1-win32/nxp_rt600_RI2019_newlib/xtensa-elf/arch/lib/\libhal.a(const--intlevel_mask.o)
 .text          0x00216cd9        0x0 C:/usr/xtensa/XtDevTools/install/builds/RI-2019.1-win32/nxp_rt600_RI2019_newlib/xtensa-elf/arch/lib/\libhal.a(const--timer_interrupt.o)
 *fill*         0x00216cd9        0x0 
 *fill*         0x00216cd9        0x7 
 .text          0x00216ce0        0x0 C:/usr/xtensa/XtDevTools/install/builds/RI-2019.1-win32/nxp_rt600_RI2019_newlib/xtensa-elf/arch/lib/\libhal.a(attribute.o)
 *fill*         0x00216ce0        0x0 
 .text          0x00216ce0       0x3c C:/usr/xtensa/XtDevTools/install/builds/RI-2019.1-win32/nxp_rt600_RI2019_newlib/xtensa-elf/arch/lib/\libhal.a(clock.o)
                0x00216ce0                xthal_get_ccount
                0x00216ce8                xthal_set_ccompare
                0x00216d04                xthal_get_ccompare
 *fill*         0x00216d1c        0x0 
 .literal       0x00216d1c        0x0 C:/usr/xtensa/XtDevTools/install/builds/RI-2019.1-win32/nxp_rt600_RI2019_newlib/xtensa-elf/arch/lib/\libhal.a(cache_asm--dcache_all_writeback_inv.o)
 *fill*         0x00216d1c        0x4 
 .text          0x00216d20       0x19 C:/usr/xtensa/XtDevTools/install/builds/RI-2019.1-win32/nxp_rt600_RI2019_newlib/xtensa-elf/arch/lib/\libhal.a(cache_asm--dcache_all_writeback_inv.o)
                0x00216d20                xthal_dcache_all_writeback_inv
 *fill*         0x00216d39        0x3 
 .literal       0x00216d3c        0x0 C:/usr/xtensa/XtDevTools/install/builds/RI-2019.1-win32/nxp_rt600_RI2019_newlib/xtensa-elf/arch/lib/\libhal.a(cache_asm--icache_all_invalidate.o)
 *fill*         0x00216d3c        0x4 
 .text          0x00216d40       0x24 C:/usr/xtensa/XtDevTools/install/builds/RI-2019.1-win32/nxp_rt600_RI2019_newlib/xtensa-elf/arch/lib/\libhal.a(cache_asm--icache_all_invalidate.o)
                0x00216d40                xthal_icache_all_invalidate
 *fill*         0x00216d64        0xc 
 .text          0x00216d70      0x2ad C:/usr/xtensa/XtDevTools/install/builds/RI-2019.1-win32/nxp_rt600_RI2019_newlib/xtensa-elf/lib/xcc/\libgcc.a(_umoddi3.o)
                0x00216d70                __umoddi3
 *fill*         0x0021701d        0x0 
 *fill*         0x0021701d        0x0 
 .text          0x0021701d        0x0 C:/usr/xtensa/XtDevTools/install/builds/RI-2019.1-win32/nxp_rt600_RI2019_newlib/xtensa-elf/lib/xcc/crtn.o
 *(.fini.literal)
 *fill*         0x0021701d        0x0 
 *(.fini)
 *fill*         0x0021701d        0x3 
 .fini          0x00217020        0x3 C:/usr/xtensa/XtDevTools/install/builds/RI-2019.1-win32/nxp_rt600_RI2019_newlib/xtensa-elf/lib/xcc/crti.o
                0x00217020                _fini
 .fini          0x00217023        0x8 C:/usr/xtensa/XtDevTools/install/builds/RI-2019.1-win32/nxp_rt600_RI2019_newlib/xtensa-elf/lib/xcc/crtbegin.o
 .fini          0x0021702b        0x2 C:/usr/xtensa/XtDevTools/install/builds/RI-2019.1-win32/nxp_rt600_RI2019_newlib/xtensa-elf/lib/xcc/crtn.o
 *(.gnu.version)
                0x00217030                . = ALIGN (0x4)
 *fill*         0x0021702d        0x3 
                0x00217030                _text_end = ABSOLUTE (.)
                0x00217030                _etext = .

.clib.text      0x00217030        0x0
                0x00217030                _clib_text_start = ABSOLUTE (.)
 *(.clib.literal .clib.text)
                0x00217030                . = ALIGN (0x4)
                0x00217030                _clib_text_end = ABSOLUTE (.)

.rtos.text      0x00217030        0x0
                0x00217030                _rtos_text_start = ABSOLUTE (.)
 *(.rtos.literal .rtos.text)
                0x00217030                . = ALIGN (0x4)
                0x00217030                _rtos_text_end = ABSOLUTE (.)

.clib.data      0x00217030        0x0
                0x00217030                _clib_data_start = ABSOLUTE (.)
 *(.clib.data)
                0x00217030                . = ALIGN (0x4)
                0x00217030                _clib_data_end = ABSOLUTE (.)

.clib.percpu.data
                0x00217030        0x0
                0x00217030                _clib_percpu_data_start = ABSOLUTE (.)
 *(.clib.percpu.data)
                0x00217030                . = ALIGN (0x4)
                0x00217030                _clib_percpu_data_end = ABSOLUTE (.)

.rtos.percpu.data
                0x00217030        0x4
                0x00217030                _rtos_percpu_data_start = ABSOLUTE (.)
 *(.rtos.percpu.data)
 .rtos.percpu.data
                0x00217030        0x4 C:/usr/xtensa/XtDevTools/install/builds/RI-2019.1-win32/nxp_rt600_RI2019_newlib/xtensa-elf/arch/lib/\libhandler-reset.a(reset-vector.o)
                0x00217030                _Pri_3_HandlerAddress
 .rtos.percpu.data
                0x00217034        0x0 C:/usr/xtensa/XtDevTools/install/builds/RI-2019.1-win32/nxp_rt600_RI2019_newlib/xtensa-elf/arch/lib/\libhandlers-board.a(exit.o)
 .rtos.percpu.data
                0x00217034        0x0 C:/usr/xtensa/XtDevTools/install/builds/RI-2019.1-win32/nxp_rt600_RI2019_newlib/xtensa-elf/arch/lib/\libhandlers-board.a(memctl_default.o)
                0x00217034                . = ALIGN (0x4)
                0x00217034                _rtos_percpu_data_end = ABSOLUTE (.)

.rtos.data      0x00217034        0x0
                0x00217034                _rtos_data_start = ABSOLUTE (.)
 *(.rtos.data)
 .rtos.data     0x00217034        0x0 C:/usr/xtensa/XtDevTools/install/builds/RI-2019.1-win32/nxp_rt600_RI2019_newlib/xtensa-elf/arch/lib/\libhal.a(windowspill_asm.o)
 .rtos.data     0x00217034        0x0 C:/usr/xtensa/XtDevTools/install/builds/RI-2019.1-win32/nxp_rt600_RI2019_newlib/xtensa-elf/arch/lib/\libhal.a(cache_asm--dcache_all_writeback.o)
 .rtos.data     0x00217034        0x0 C:/usr/xtensa/XtDevTools/install/builds/RI-2019.1-win32/nxp_rt600_RI2019_newlib/xtensa-elf/arch/lib/\libhal.a(cache_asm--hw_configid0.o)
 .rtos.data     0x00217034        0x0 C:/usr/xtensa/XtDevTools/install/builds/RI-2019.1-win32/nxp_rt600_RI2019_newlib/xtensa-elf/arch/lib/\libhal.a(cache_asm--hw_configid1.o)
 .rtos.data     0x00217034        0x0 C:/usr/xtensa/XtDevTools/install/builds/RI-2019.1-win32/nxp_rt600_RI2019_newlib/xtensa-elf/arch/lib/\libhal.a(cache_asm--release_major.o)
 .rtos.data     0x00217034        0x0 C:/usr/xtensa/XtDevTools/install/builds/RI-2019.1-win32/nxp_rt600_RI2019_newlib/xtensa-elf/arch/lib/\libhal.a(cache_asm--release_minor.o)
 .rtos.data     0x00217034        0x0 C:/usr/xtensa/XtDevTools/install/builds/RI-2019.1-win32/nxp_rt600_RI2019_newlib/xtensa-elf/arch/lib/\libhal.a(const--intlevel.o)
 .rtos.data     0x00217034        0x0 C:/usr/xtensa/XtDevTools/install/builds/RI-2019.1-win32/nxp_rt600_RI2019_newlib/xtensa-elf/arch/lib/\libhal.a(const--intlevel_mask.o)
 .rtos.data     0x00217034        0x0 C:/usr/xtensa/XtDevTools/install/builds/RI-2019.1-win32/nxp_rt600_RI2019_newlib/xtensa-elf/arch/lib/\libhal.a(const--timer_interrupt.o)
 .rtos.data     0x00217034        0x0 C:/usr/xtensa/XtDevTools/install/builds/RI-2019.1-win32/nxp_rt600_RI2019_newlib/xtensa-elf/arch/lib/\libhal.a(attribute.o)
 .rtos.data     0x00217034        0x0 C:/usr/xtensa/XtDevTools/install/builds/RI-2019.1-win32/nxp_rt600_RI2019_newlib/xtensa-elf/arch/lib/\libhal.a(clock.o)
 .rtos.data     0x00217034        0x0 C:/usr/xtensa/XtDevTools/install/builds/RI-2019.1-win32/nxp_rt600_RI2019_newlib/xtensa-elf/arch/lib/\libhal.a(cache_attr--get_cacheattr.o)
 .rtos.data     0x00217034        0x0 C:/usr/xtensa/XtDevTools/install/builds/RI-2019.1-win32/nxp_rt600_RI2019_newlib/xtensa-elf/arch/lib/\libhal.a(cache_attr--set_cacheattr.o)
 .rtos.data     0x00217034        0x0 C:/usr/xtensa/XtDevTools/install/builds/RI-2019.1-win32/nxp_rt600_RI2019_newlib/xtensa-elf/arch/lib/\libhal.a(cache_asm--dcache_all_writeback_inv.o)
 .rtos.data     0x00217034        0x0 C:/usr/xtensa/XtDevTools/install/builds/RI-2019.1-win32/nxp_rt600_RI2019_newlib/xtensa-elf/arch/lib/\libhal.a(cache_asm--icache_all_invalidate.o)
                0x00217034                . = ALIGN (0x4)
                0x00217034                _rtos_data_end = ABSOLUTE (.)

.sram.data      0x00217034        0x0
                0x00217034                _sram_data_start = ABSOLUTE (.)
 *(.sram.data)
                0x00217034                . = ALIGN (0x4)
                0x00217034                _sram_data_end = ABSOLUTE (.)

.data           0x00217040      0xf6c
                0x00217040                _data_start = ABSOLUTE (.)
 *(.data)
 .data          0x00217040        0xc C:/usr/xtensa/XtDevTools/install/builds/RI-2019.1-win32/nxp_rt600_RI2019_newlib/xtensa-elf/arch/lib/crt1-boards.o
 .data          0x0021704c        0x0 C:/usr/xtensa/XtDevTools/install/builds/RI-2019.1-win32/nxp_rt600_RI2019_newlib/xtensa-elf/lib/xcc/crti.o
 .data          0x0021704c        0x8 C:/usr/xtensa/XtDevTools/install/builds/RI-2019.1-win32/nxp_rt600_RI2019_newlib/xtensa-elf/lib/xcc/crtbegin.o
                0x0021704c                __dso_handle
 .data          0x00217054        0x0 C:/usr/xtensa/XtDevTools/install/builds/RI-2019.1-win32/nxp_rt600_RI2019_newlib/xtensa-elf/arch/lib/_sharedvectors.o
 .data          0x00217054        0x0 C:/usr/xtensa/XtDevTools/install/builds/RI-2019.1-win32/nxp_rt600_RI2019_newlib/xtensa-elf/arch/lib/_vectors.o
 .data          0x00217054        0x4 MIMXRT685S/system_MIMXRT685S_dsp.o
                0x00217054                SystemCoreClock
 .data          0x00217058        0x0 board/pin_mux.o
 .data          0x00217058        0x0 component/lists/generic_list.o
 .data          0x00217058        0x0 component/serial_manager/serial_manager.o
 .data          0x00217058        0x0 component/serial_manager/serial_port_uart.o
 .data          0x00217058        0x0 component/uart/usart_adapter.o
 .data          0x00217058        0x0 drivers/fsl_clock.o
 .data          0x00217058        0x0 drivers/fsl_common.o
 .data          0x00217058        0x0 drivers/fsl_flexcomm.o
 .data          0x00217058        0x0 drivers/fsl_gpio.o
 .data          0x00217058        0x0 drivers/fsl_reset.o
 .data          0x00217058        0x0 drivers/fsl_usart.o
 .data          0x00217058        0x8 drivers_audio/fsl_dma.o
 .data          0x00217060        0x0 drivers_audio/fsl_dmic.o
 .data          0x00217060        0x0 drivers_audio/fsl_dmic_dma.o
 .data          0x00217060        0x0 drivers_audio/fsl_i2s.o
 .data          0x00217060        0x0 drivers_audio/fsl_i2s_dma.o
 .data          0x00217060        0x0 drivers_audio/fsl_inputmux.o
 .data          0x00217060        0x0 evkmimxrt685/board_hifi4.o
 .data          0x00217060      0x1a8 user/main.o
 .data          0x00217208        0x0 user/user_pin_mux.o
 .data          0x00217208        0x0 utilities/fsl_debug_console.o
 .data          0x00217208        0x0 utilities/fsl_str.o
 .data          0x00217208        0x0 C:/usr/xtensa/XtDevTools/install/builds/RI-2019.1-win32/nxp_rt600_RI2019_newlib/xtensa-elf/arch/lib/\libxos.a(xos.o)
 .data          0x00217208      0x100 C:/usr/xtensa/XtDevTools/install/builds/RI-2019.1-win32/nxp_rt600_RI2019_newlib/xtensa-elf/arch/lib/\libxos.a(xos_exc_handler.o)
                0x00217208                _xos_exc_handler_table
 *fill*         0x00217308        0x8 
 .data          0x00217310      0x230 C:/usr/xtensa/XtDevTools/install/builds/RI-2019.1-win32/nxp_rt600_RI2019_newlib/xtensa-elf/arch/lib/\libxos.a(xos_int_table.o)
                0x00217310                xos_intlevel_mask
                0x00217310                xos_globals
                0x00217314                xos_intenable_mask
                0x00217318                xos_curr_threadptr
                0x0021731c                xos_next_threadptr
                0x00217320                xos_interrupt_table
                0x00217520                _xos_cp_owner_table
 .data          0x00217540        0x0 C:/usr/xtensa/XtDevTools/install/builds/RI-2019.1-win32/nxp_rt600_RI2019_newlib/xtensa-elf/arch/lib/\libxos.a(xos_start_main.o)
 .data          0x00217540        0x2 C:/usr/xtensa/XtDevTools/install/builds/RI-2019.1-win32/nxp_rt600_RI2019_newlib/xtensa-elf/arch/lib/\libxos.a(xos_thread.o)
                0x00217540                xos_init_flag
                0x00217541                xos_start_flag
 *fill*         0x00217542        0x2 
 .data          0x00217544        0xd C:/usr/xtensa/XtDevTools/install/builds/RI-2019.1-win32/nxp_rt600_RI2019_newlib/xtensa-elf/arch/lib/\libxos.a(xos_timer.o)
                0x00217544                xos_ticks_per_slice
 *fill*         0x00217551        0x3 
 .data          0x00217554       0x20 C:/usr/xtensa/XtDevTools/install/builds/RI-2019.1-win32/nxp_rt600_RI2019_newlib/xtensa-elf/arch/lib/\libxos.a(xos_handlers.o)
                0x00217554                xos_hp_dispatch_table
                0x00217570                xos_nmi_dispatch_table
 .data          0x00217574        0x0 C:/usr/xtensa/XtDevTools/install/builds/RI-2019.1-win32/nxp_rt600_RI2019_newlib/xtensa-elf/arch/lib/\libxos.a(xos_int_stack.o)
 .data          0x00217574        0x0 C:/usr/xtensa/XtDevTools/install/builds/RI-2019.1-win32/nxp_rt600_RI2019_newlib/xtensa-elf/arch/lib/\libxos.a(xos_vectors.o)
 .data          0x00217574        0x0 C:/usr/xtensa/XtDevTools/install/builds/RI-2019.1-win32/nxp_rt600_RI2019_newlib/xtensa-elf/arch/lib/\libxos.a(xos_window_vectors.o)
 .data          0x00217574        0x0 C:/usr/xtensa/XtDevTools/install/builds/RI-2019.1-win32/nxp_rt600_RI2019_newlib/xtensa-elf/arch/lib/\libxos.a(xos_clib.o)
 *fill*         0x00217574        0xc 
 .data          0x00217580        0x8 C:/usr/xtensa/XtDevTools/install/builds/RI-2019.1-win32/nxp_rt600_RI2019_newlib/xtensa-elf/arch/lib/\libxos.a(xos_coproc_handler.o)
                0x00217580                _xt_coproc_owner_sa
 .data          0x00217588        0x0 C:/usr/xtensa/XtDevTools/install/builds/RI-2019.1-win32/nxp_rt600_RI2019_newlib/xtensa-elf/arch/lib/\libxos.a(xos_mutex.o)
 .data          0x00217588        0x0 C:/usr/xtensa/XtDevTools/install/builds/RI-2019.1-win32/nxp_rt600_RI2019_newlib/xtensa-elf/arch/lib/\libxos.a(xos_once.o)
 .data          0x00217588        0x4 C:/usr/xtensa/XtDevTools/install/builds/RI-2019.1-win32/nxp_rt600_RI2019_newlib/xtensa-elf/arch/lib/\libxos.a(xos_system_timer.o)
 .data          0x0021758c        0x0 C:/usr/xtensa/XtDevTools/install/builds/RI-2019.1-win32/nxp_rt600_RI2019_newlib/xtensa-elf/lib/xcc/\libgcc.a(_muldi3.o)
 .data          0x0021758c        0x0 C:/usr/xtensa/XtDevTools/install/builds/RI-2019.1-win32/nxp_rt600_RI2019_newlib/xtensa-elf/lib/xcc/\libgcc.a(_udivdi3.o)
 .data          0x0021758c        0x0 C:/usr/xtensa/XtDevTools/install/builds/RI-2019.1-win32/nxp_rt600_RI2019_newlib/xtensa-elf/lib/\libc.a(clibrary_init.o)
 .data          0x0021758c        0x0 C:/usr/xtensa/XtDevTools/install/builds/RI-2019.1-win32/nxp_rt600_RI2019_newlib/xtensa-elf/lib/\libc.a(lib_a-assert.o)
 .data          0x0021758c        0x4 C:/usr/xtensa/XtDevTools/install/builds/RI-2019.1-win32/nxp_rt600_RI2019_newlib/xtensa-elf/lib/\libc.a(lib_a-environ.o)
                0x0021758c                environ
 .data          0x00217590        0x0 C:/usr/xtensa/XtDevTools/install/builds/RI-2019.1-win32/nxp_rt600_RI2019_newlib/xtensa-elf/lib/\libc.a(lib_a-exit.o)
 .data          0x00217590        0x0 C:/usr/xtensa/XtDevTools/install/builds/RI-2019.1-win32/nxp_rt600_RI2019_newlib/xtensa-elf/lib/\libc.a(lib_a-fiprintf.o)
 .data          0x00217590      0x42c C:/usr/xtensa/XtDevTools/install/builds/RI-2019.1-win32/nxp_rt600_RI2019_newlib/xtensa-elf/lib/\libc.a(lib_a-impure.o)
                0x002179b8                _impure_ptr
 .data          0x002179bc        0x0 C:/usr/xtensa/XtDevTools/install/builds/RI-2019.1-win32/nxp_rt600_RI2019_newlib/xtensa-elf/lib/\libc.a(lib_a-malloc.o)
 *fill*         0x002179bc        0x4 
 .data          0x002179c0      0x418 C:/usr/xtensa/XtDevTools/install/builds/RI-2019.1-win32/nxp_rt600_RI2019_newlib/xtensa-elf/lib/\libc.a(lib_a-mallocr.o)
                0x002179c0                __malloc_sbrk_base
                0x002179c4                __malloc_trim_threshold
                0x002179d0                __malloc_av_
 .data          0x00217dd8        0x0 C:/usr/xtensa/XtDevTools/install/builds/RI-2019.1-win32/nxp_rt600_RI2019_newlib/xtensa-elf/lib/\libc.a(lib_a-memcpy.o)
 .data          0x00217dd8        0x0 C:/usr/xtensa/XtDevTools/install/builds/RI-2019.1-win32/nxp_rt600_RI2019_newlib/xtensa-elf/lib/\libc.a(lib_a-memset.o)
 .data          0x00217dd8        0x0 C:/usr/xtensa/XtDevTools/install/builds/RI-2019.1-win32/nxp_rt600_RI2019_newlib/xtensa-elf/lib/\libc.a(lib_a-reent.o)
 .data          0x00217dd8        0x0 C:/usr/xtensa/XtDevTools/install/builds/RI-2019.1-win32/nxp_rt600_RI2019_newlib/xtensa-elf/lib/\libc.a(lib_a-strlen.o)
 .data          0x00217dd8        0x0 C:/usr/xtensa/XtDevTools/install/builds/RI-2019.1-win32/nxp_rt600_RI2019_newlib/xtensa-elf/lib/\libc.a(lib_a-strtoul.o)
 .data          0x00217dd8        0x0 C:/usr/xtensa/XtDevTools/install/builds/RI-2019.1-win32/nxp_rt600_RI2019_newlib/xtensa-elf/lib/\libc.a(lib_a-vfiprintf.o)
 .data          0x00217dd8        0x0 C:/usr/xtensa/XtDevTools/install/builds/RI-2019.1-win32/nxp_rt600_RI2019_newlib/xtensa-elf/lib/\libc.a(lib_a-wsetup.o)
 .data          0x00217dd8        0x0 C:/usr/xtensa/XtDevTools/install/builds/RI-2019.1-win32/nxp_rt600_RI2019_newlib/xtensa-elf/lib/\libc.a(_atexit.o)
 .data          0x00217dd8        0x0 C:/usr/xtensa/XtDevTools/install/builds/RI-2019.1-win32/nxp_rt600_RI2019_newlib/xtensa-elf/lib/\libc.a(lib_a-__call_atexit.o)
 .data          0x00217dd8        0x0 C:/usr/xtensa/XtDevTools/install/builds/RI-2019.1-win32/nxp_rt600_RI2019_newlib/xtensa-elf/lib/\libc.a(lib_a-abort.o)
 .data          0x00217dd8        0x4 C:/usr/xtensa/XtDevTools/install/builds/RI-2019.1-win32/nxp_rt600_RI2019_newlib/xtensa-elf/lib/\libc.a(lib_a-ctype_.o)
                0x00217dd8                __ctype_ptr__
 .data          0x00217ddc        0x0 C:/usr/xtensa/XtDevTools/install/builds/RI-2019.1-win32/nxp_rt600_RI2019_newlib/xtensa-elf/lib/\libc.a(lib_a-fflush.o)
 .data          0x00217ddc        0x0 C:/usr/xtensa/XtDevTools/install/builds/RI-2019.1-win32/nxp_rt600_RI2019_newlib/xtensa-elf/lib/\libc.a(lib_a-findfp.o)
 .data          0x00217ddc        0x0 C:/usr/xtensa/XtDevTools/install/builds/RI-2019.1-win32/nxp_rt600_RI2019_newlib/xtensa-elf/lib/\libc.a(lib_a-fputwc.o)
 .data          0x00217ddc        0x0 C:/usr/xtensa/XtDevTools/install/builds/RI-2019.1-win32/nxp_rt600_RI2019_newlib/xtensa-elf/lib/\libc.a(lib_a-freer.o)
 .data          0x00217ddc        0x0 C:/usr/xtensa/XtDevTools/install/builds/RI-2019.1-win32/nxp_rt600_RI2019_newlib/xtensa-elf/lib/\libc.a(lib_a-fvwrite.o)
 .data          0x00217ddc        0x0 C:/usr/xtensa/XtDevTools/install/builds/RI-2019.1-win32/nxp_rt600_RI2019_newlib/xtensa-elf/lib/\libc.a(lib_a-fwalk.o)
 *fill*         0x00217ddc        0x4 
 .data          0x00217de0       0x80 C:/usr/xtensa/XtDevTools/install/builds/RI-2019.1-win32/nxp_rt600_RI2019_newlib/xtensa-elf/lib/\libc.a(lib_a-locale.o)
                0x00217de0                __mb_cur_max
 .data          0x00217e60        0x0 C:/usr/xtensa/XtDevTools/install/builds/RI-2019.1-win32/nxp_rt600_RI2019_newlib/xtensa-elf/lib/\libc.a(lib_a-makebuf.o)
 .data          0x00217e60        0x0 C:/usr/xtensa/XtDevTools/install/builds/RI-2019.1-win32/nxp_rt600_RI2019_newlib/xtensa-elf/lib/\libc.a(lib_a-memchr.o)
 .data          0x00217e60        0x0 C:/usr/xtensa/XtDevTools/install/builds/RI-2019.1-win32/nxp_rt600_RI2019_newlib/xtensa-elf/lib/\libc.a(lib_a-memmove.o)
 .data          0x00217e60        0x0 C:/usr/xtensa/XtDevTools/install/builds/RI-2019.1-win32/nxp_rt600_RI2019_newlib/xtensa-elf/lib/\libc.a(lib_a-reallocr.o)
 .data          0x00217e60        0x0 C:/usr/xtensa/XtDevTools/install/builds/RI-2019.1-win32/nxp_rt600_RI2019_newlib/xtensa-elf/lib/\libc.a(lib_a-signal.o)
 .data          0x00217e60        0x0 C:/usr/xtensa/XtDevTools/install/builds/RI-2019.1-win32/nxp_rt600_RI2019_newlib/xtensa-elf/lib/\libc.a(lib_a-stdio.o)
 .data          0x00217e60        0x0 C:/usr/xtensa/XtDevTools/install/builds/RI-2019.1-win32/nxp_rt600_RI2019_newlib/xtensa-elf/lib/\libc.a(lib_a-strcmp.o)
 .data          0x00217e60        0x0 C:/usr/xtensa/XtDevTools/install/builds/RI-2019.1-win32/nxp_rt600_RI2019_newlib/xtensa-elf/lib/\libc.a(lib_a-wbuf.o)
 .data          0x00217e60        0x0 C:/usr/xtensa/XtDevTools/install/builds/RI-2019.1-win32/nxp_rt600_RI2019_newlib/xtensa-elf/lib/\libc.a(lib_a-wcrtomb.o)
 .data          0x00217e60        0x4 C:/usr/xtensa/XtDevTools/install/builds/RI-2019.1-win32/nxp_rt600_RI2019_newlib/xtensa-elf/lib/\libc.a(lib_a-wctomb_r.o)
                0x00217e60                __wctomb
 .data          0x00217e64        0x0 C:/usr/xtensa/XtDevTools/install/builds/RI-2019.1-win32/nxp_rt600_RI2019_newlib/xtensa-elf/lib/\libc.a(isatty.o)
 .data          0x00217e64        0x0 C:/usr/xtensa/XtDevTools/install/builds/RI-2019.1-win32/nxp_rt600_RI2019_newlib/xtensa-elf/lib/\libc.a(lib_a-fclose.o)
 .data          0x00217e64        0x0 C:/usr/xtensa/XtDevTools/install/builds/RI-2019.1-win32/nxp_rt600_RI2019_newlib/xtensa-elf/lib/\libgdbio.a(close.o)
 .data          0x00217e64        0x0 C:/usr/xtensa/XtDevTools/install/builds/RI-2019.1-win32/nxp_rt600_RI2019_newlib/xtensa-elf/lib/\libgdbio.a(fstat.o)
 .data          0x00217e64        0x0 C:/usr/xtensa/XtDevTools/install/builds/RI-2019.1-win32/nxp_rt600_RI2019_newlib/xtensa-elf/lib/\libgdbio.a(kill.o)
 .data          0x00217e64      0x10c C:/usr/xtensa/XtDevTools/install/builds/RI-2019.1-win32/nxp_rt600_RI2019_newlib/xtensa-elf/lib/\libgdbio.a(libinit.o)
                0x00217e64                libio_mode
                0x00217e68                _start_argc
                0x00217e6c                _start_envp
                0x00217e70                _start_argv
 .data          0x00217f70        0x0 C:/usr/xtensa/XtDevTools/install/builds/RI-2019.1-win32/nxp_rt600_RI2019_newlib/xtensa-elf/lib/\libgdbio.a(lseek.o)
 .data          0x00217f70        0x0 C:/usr/xtensa/XtDevTools/install/builds/RI-2019.1-win32/nxp_rt600_RI2019_newlib/xtensa-elf/lib/\libgdbio.a(read.o)
 .data          0x00217f70       0x3c C:/usr/xtensa/XtDevTools/install/builds/RI-2019.1-win32/nxp_rt600_RI2019_newlib/xtensa-elf/lib/\libgdbio.a(semihosting.o)
 .data          0x00217fac        0x0 C:/usr/xtensa/XtDevTools/install/builds/RI-2019.1-win32/nxp_rt600_RI2019_newlib/xtensa-elf/lib/\libgdbio.a(syscall.o)
 .data          0x00217fac        0x0 C:/usr/xtensa/XtDevTools/install/builds/RI-2019.1-win32/nxp_rt600_RI2019_newlib/xtensa-elf/lib/\libgdbio.a(write.o)
 .data          0x00217fac        0x0 C:/usr/xtensa/XtDevTools/install/builds/RI-2019.1-win32/nxp_rt600_RI2019_newlib/xtensa-elf/lib/\libgdbio.a(getpid.o)
 .data          0x00217fac        0x0 C:/usr/xtensa/XtDevTools/install/builds/RI-2019.1-win32/nxp_rt600_RI2019_newlib/xtensa-elf/lib/\libgdbio.a(miniboard.o)
 .data          0x00217fac        0x0 C:/usr/xtensa/XtDevTools/install/builds/RI-2019.1-win32/nxp_rt600_RI2019_newlib/xtensa-elf/lib/xcc/\libgcc.a(_umoddi3.o)
 .data          0x00217fac        0x0 C:/usr/xtensa/XtDevTools/install/builds/RI-2019.1-win32/nxp_rt600_RI2019_newlib/xtensa-elf/lib/xcc/crtend.o
 .data          0x00217fac        0x0 C:/usr/xtensa/XtDevTools/install/builds/RI-2019.1-win32/nxp_rt600_RI2019_newlib/xtensa-elf/lib/xcc/crtn.o
 *(SORT(.data.sort.*))
 *(SORT(.data.keepsort.*) .data.keep.*)
 *(.data.*)
 *(.gnu.linkonce.d.*)
 *(.gnu.linkonce.d.*personality*)
 *(.data1)
 *(.sdata)
 *(.sdata.*)
 *(.gnu.linkonce.s.*)
 *(.sdata2)
 *(.sdata2.*)
 *(.gnu.linkonce.s2.*)
 *(.jcr)
 *(__llvm_prf_cnts)
 *(__llvm_prf_data)
 *(__llvm_prf_vnds)
                0x00217fac                . = ALIGN (0x4)
                0x00217fac                _data_end = ABSOLUTE (.)

__llvm_prf_names
                0x00217fac        0x0
                0x00217fac                __llvm_prf_names_start = ABSOLUTE (.)
 *(__llvm_prf_names)
                0x00217fac                . = ALIGN (0x4)
                0x00217fac                __llvm_prf_names_end = ABSOLUTE (.)

.bss            0x00217fb0     0x5c88
                0x00217fb0                . = ALIGN (0x8)
                0x00217fb0                _bss_start = ABSOLUTE (.)
 *(.dynsbss)
 *(.sbss)
 *(.sbss.*)
 *(.gnu.linkonce.sb.*)
 *(.scommon)
 *(.sbss2)
 *(.sbss2.*)
 *(.gnu.linkonce.sb2.*)
 *(.dynbss)
 *(.bss)
 .bss           0x00217fb0        0x0 C:/usr/xtensa/XtDevTools/install/builds/RI-2019.1-win32/nxp_rt600_RI2019_newlib/xtensa-elf/arch/lib/crt1-boards.o
 .bss           0x00217fb0        0x0 C:/usr/xtensa/XtDevTools/install/builds/RI-2019.1-win32/nxp_rt600_RI2019_newlib/xtensa-elf/lib/xcc/crti.o
 .bss           0x00217fb0       0x1c C:/usr/xtensa/XtDevTools/install/builds/RI-2019.1-win32/nxp_rt600_RI2019_newlib/xtensa-elf/lib/xcc/crtbegin.o
 .bss           0x00217fcc        0x0 C:/usr/xtensa/XtDevTools/install/builds/RI-2019.1-win32/nxp_rt600_RI2019_newlib/xtensa-elf/arch/lib/_sharedvectors.o
 .bss           0x00217fcc        0x0 C:/usr/xtensa/XtDevTools/install/builds/RI-2019.1-win32/nxp_rt600_RI2019_newlib/xtensa-elf/arch/lib/_vectors.o
 .bss           0x00217fcc        0x0 MIMXRT685S/system_MIMXRT685S_dsp.o
 .bss           0x00217fcc        0x0 board/pin_mux.o
 .bss           0x00217fcc        0x0 component/lists/generic_list.o
 .bss           0x00217fcc        0x0 component/serial_manager/serial_manager.o
 .bss           0x00217fcc        0x0 component/serial_manager/serial_port_uart.o
 .bss           0x00217fcc        0x0 component/uart/usart_adapter.o
 .bss           0x00217fcc        0xc drivers/fsl_clock.o
                0x00217fcc                g_clkinFreq
                0x00217fd0                g_xtalFreq
                0x00217fd4                g_mclkFreq
 .bss           0x00217fd8        0x0 drivers/fsl_common.o
 *fill*         0x00217fd8        0x8 
 .bss           0x00217fe0       0x58 drivers/fsl_flexcomm.o
 .bss           0x00218038        0x0 drivers/fsl_gpio.o
 .bss           0x00218038        0x0 drivers/fsl_reset.o
 .bss           0x00218038        0x0 drivers/fsl_usart.o
 *fill*         0x00218038        0x8 
 .bss           0x00218040      0x108 drivers_audio/fsl_dma.o
 .bss           0x00218148        0x8 drivers_audio/fsl_dmic.o
 .bss           0x00218150        0x0 drivers_audio/fsl_dmic_dma.o
 .bss           0x00218150        0x0 drivers_audio/fsl_i2s.o
 .bss           0x00218150      0x1d0 drivers_audio/fsl_i2s_dma.o
 .bss           0x00218320        0x0 drivers_audio/fsl_inputmux.o
 .bss           0x00218320        0x0 evkmimxrt685/board_hifi4.o
 .bss           0x00218320     0x2c90 user/main.o
                0x00218330                thread_Audio_tcb
                0x00219d70                s_dma_table_0
                0x00219dd0                s_dma_table_1
                0x00219e30                s_destBuffer
                0x0021aab0                s_dmaDescriptorPingpong_0
                0x0021aad0                s_dmaDescriptorPingpong_1
                0x0021aaf0                s_dmaDescriptorPingpong_2
                0x0021ab10                s_dmaDescriptorPingpong_3
                0x0021ab30                s_dmaDescriptorPingpong_4
                0x0021ab50                s_dmaDescriptorPingpong_5
                0x0021ab70                s_dmaDescriptorPingpong_6
                0x0021ab90                s_dmaDescriptorPingpong_7
                0x0021abb0                s_buffer_1
                0x0021adb0                s_buffer_0
 .bss           0x0021afb0        0x0 user/user_pin_mux.o
 .bss           0x0021afb0       0x21 utilities/fsl_debug_console.o
                0x0021afcc                g_serialHandle
 .bss           0x0021afd1        0x0 utilities/fsl_str.o
 *fill*         0x0021afd1        0x3 
 .bss           0x0021afd4        0xc C:/usr/xtensa/XtDevTools/install/builds/RI-2019.1-win32/nxp_rt600_RI2019_newlib/xtensa-elf/arch/lib/\libxos.a(xos.o)
                0x0021afd4                xos_syslog
                0x0021afd8                xos_log
 .bss           0x0021afe0        0x0 C:/usr/xtensa/XtDevTools/install/builds/RI-2019.1-win32/nxp_rt600_RI2019_newlib/xtensa-elf/arch/lib/\libxos.a(xos_exc_handler.o)
 .bss           0x0021afe0       0x10 C:/usr/xtensa/XtDevTools/install/builds/RI-2019.1-win32/nxp_rt600_RI2019_newlib/xtensa-elf/arch/lib/\libxos.a(xos_int_table.o)
                0x0021afe0                _xos_inth_cycle_count
                0x0021afe8                _xos_inth_start_ccount
                0x0021afec                _xos_inth_intr_count
 .bss           0x0021aff0      0x5d8 C:/usr/xtensa/XtDevTools/install/builds/RI-2019.1-win32/nxp_rt600_RI2019_newlib/xtensa-elf/arch/lib/\libxos.a(xos_start_main.o)
 *fill*         0x0021b5c8        0x8 
 .bss           0x0021b5d0      0x590 C:/usr/xtensa/XtDevTools/install/builds/RI-2019.1-win32/nxp_rt600_RI2019_newlib/xtensa-elf/arch/lib/\libxos.a(xos_thread.o)
                0x0021b5d0                xos_idle_thread
                0x0021ba88                xos_all_threads
                0x0021ba8c                xos_all_threads_tail
                0x0021ba90                xos_ready_mask
                0x0021ba94                xos_num_ctx_switches
                0x0021baa0                xos_ready_threads
 .bss           0x0021bb60       0x2c C:/usr/xtensa/XtDevTools/install/builds/RI-2019.1-win32/nxp_rt600_RI2019_newlib/xtensa-elf/arch/lib/\libxos.a(xos_timer.o)
                0x0021bb60                xos_clock_freq
                0x0021bb64                xos_tick_period
                0x0021bb70                xos_system_ticks
                0x0021bb78                xos_system_cycles
                0x0021bb80                xos_last_ccount
 .bss           0x0021bb8c        0x0 C:/usr/xtensa/XtDevTools/install/builds/RI-2019.1-win32/nxp_rt600_RI2019_newlib/xtensa-elf/arch/lib/\libxos.a(xos_handlers.o)
 *fill*         0x0021bb8c        0x4 
 .bss           0x0021bb90     0x2000 C:/usr/xtensa/XtDevTools/install/builds/RI-2019.1-win32/nxp_rt600_RI2019_newlib/xtensa-elf/arch/lib/\libxos.a(xos_int_stack.o)
                0x0021bb90                xos_int_stack
                0x0021db90                xos_int_stack_end
 .bss           0x0021db90        0x0 C:/usr/xtensa/XtDevTools/install/builds/RI-2019.1-win32/nxp_rt600_RI2019_newlib/xtensa-elf/arch/lib/\libxos.a(xos_vectors.o)
 .bss           0x0021db90        0x0 C:/usr/xtensa/XtDevTools/install/builds/RI-2019.1-win32/nxp_rt600_RI2019_newlib/xtensa-elf/arch/lib/\libxos.a(xos_window_vectors.o)
 .bss           0x0021db90       0x2c C:/usr/xtensa/XtDevTools/install/builds/RI-2019.1-win32/nxp_rt600_RI2019_newlib/xtensa-elf/arch/lib/\libxos.a(xos_clib.o)
 .bss           0x0021dbbc        0x0 C:/usr/xtensa/XtDevTools/install/builds/RI-2019.1-win32/nxp_rt600_RI2019_newlib/xtensa-elf/arch/lib/\libxos.a(xos_coproc_handler.o)
 .bss           0x0021dbbc        0x0 C:/usr/xtensa/XtDevTools/install/builds/RI-2019.1-win32/nxp_rt600_RI2019_newlib/xtensa-elf/arch/lib/\libxos.a(xos_mutex.o)
 .bss           0x0021dbbc       0x20 C:/usr/xtensa/XtDevTools/install/builds/RI-2019.1-win32/nxp_rt600_RI2019_newlib/xtensa-elf/arch/lib/\libxos.a(xos_once.o)
 .bss           0x0021dbdc        0x4 C:/usr/xtensa/XtDevTools/install/builds/RI-2019.1-win32/nxp_rt600_RI2019_newlib/xtensa-elf/arch/lib/\libxos.a(xos_system_timer.o)
 .bss           0x0021dbe0        0x0 C:/usr/xtensa/XtDevTools/install/builds/RI-2019.1-win32/nxp_rt600_RI2019_newlib/xtensa-elf/lib/xcc/\libgcc.a(_muldi3.o)
 .bss           0x0021dbe0        0x0 C:/usr/xtensa/XtDevTools/install/builds/RI-2019.1-win32/nxp_rt600_RI2019_newlib/xtensa-elf/lib/xcc/\libgcc.a(_udivdi3.o)
 .bss           0x0021dbe0        0x4 C:/usr/xtensa/XtDevTools/install/builds/RI-2019.1-win32/nxp_rt600_RI2019_newlib/xtensa-elf/lib/\libc.a(clibrary_init.o)
                0x0021dbe0                __progname
 .bss           0x0021dbe4        0x0 C:/usr/xtensa/XtDevTools/install/builds/RI-2019.1-win32/nxp_rt600_RI2019_newlib/xtensa-elf/lib/\libc.a(lib_a-assert.o)
 .bss           0x0021dbe4        0x4 C:/usr/xtensa/XtDevTools/install/builds/RI-2019.1-win32/nxp_rt600_RI2019_newlib/xtensa-elf/lib/\libc.a(lib_a-environ.o)
 .bss           0x0021dbe8        0x0 C:/usr/xtensa/XtDevTools/install/builds/RI-2019.1-win32/nxp_rt600_RI2019_newlib/xtensa-elf/lib/\libc.a(lib_a-exit.o)
 .bss           0x0021dbe8        0x0 C:/usr/xtensa/XtDevTools/install/builds/RI-2019.1-win32/nxp_rt600_RI2019_newlib/xtensa-elf/lib/\libc.a(lib_a-fiprintf.o)
 .bss           0x0021dbe8        0x0 C:/usr/xtensa/XtDevTools/install/builds/RI-2019.1-win32/nxp_rt600_RI2019_newlib/xtensa-elf/lib/\libc.a(lib_a-impure.o)
 .bss           0x0021dbe8        0x0 C:/usr/xtensa/XtDevTools/install/builds/RI-2019.1-win32/nxp_rt600_RI2019_newlib/xtensa-elf/lib/\libc.a(lib_a-malloc.o)
 .bss           0x0021dbe8       0x34 C:/usr/xtensa/XtDevTools/install/builds/RI-2019.1-win32/nxp_rt600_RI2019_newlib/xtensa-elf/lib/\libc.a(lib_a-mallocr.o)
                0x0021dbe8                __malloc_top_pad
                0x0021dbec                __malloc_current_mallinfo
                0x0021dc14                __malloc_max_sbrked_mem
                0x0021dc18                __malloc_max_total_mem
 .bss           0x0021dc1c        0x0 C:/usr/xtensa/XtDevTools/install/builds/RI-2019.1-win32/nxp_rt600_RI2019_newlib/xtensa-elf/lib/\libc.a(lib_a-memcpy.o)
 .bss           0x0021dc1c        0x0 C:/usr/xtensa/XtDevTools/install/builds/RI-2019.1-win32/nxp_rt600_RI2019_newlib/xtensa-elf/lib/\libc.a(lib_a-memset.o)
 .bss           0x0021dc1c        0x0 C:/usr/xtensa/XtDevTools/install/builds/RI-2019.1-win32/nxp_rt600_RI2019_newlib/xtensa-elf/lib/\libc.a(lib_a-reent.o)
 .bss           0x0021dc1c        0x0 C:/usr/xtensa/XtDevTools/install/builds/RI-2019.1-win32/nxp_rt600_RI2019_newlib/xtensa-elf/lib/\libc.a(lib_a-strlen.o)
 .bss           0x0021dc1c        0x0 C:/usr/xtensa/XtDevTools/install/builds/RI-2019.1-win32/nxp_rt600_RI2019_newlib/xtensa-elf/lib/\libc.a(lib_a-strtoul.o)
 .bss           0x0021dc1c        0x0 C:/usr/xtensa/XtDevTools/install/builds/RI-2019.1-win32/nxp_rt600_RI2019_newlib/xtensa-elf/lib/\libc.a(lib_a-vfiprintf.o)
 .bss           0x0021dc1c        0x0 C:/usr/xtensa/XtDevTools/install/builds/RI-2019.1-win32/nxp_rt600_RI2019_newlib/xtensa-elf/lib/\libc.a(lib_a-wsetup.o)
 .bss           0x0021dc1c        0x0 C:/usr/xtensa/XtDevTools/install/builds/RI-2019.1-win32/nxp_rt600_RI2019_newlib/xtensa-elf/lib/\libc.a(_atexit.o)
 .bss           0x0021dc1c        0x0 C:/usr/xtensa/XtDevTools/install/builds/RI-2019.1-win32/nxp_rt600_RI2019_newlib/xtensa-elf/lib/\libc.a(lib_a-__call_atexit.o)
 .bss           0x0021dc1c        0x0 C:/usr/xtensa/XtDevTools/install/builds/RI-2019.1-win32/nxp_rt600_RI2019_newlib/xtensa-elf/lib/\libc.a(lib_a-abort.o)
 .bss           0x0021dc1c        0x0 C:/usr/xtensa/XtDevTools/install/builds/RI-2019.1-win32/nxp_rt600_RI2019_newlib/xtensa-elf/lib/\libc.a(lib_a-ctype_.o)
 .bss           0x0021dc1c        0x0 C:/usr/xtensa/XtDevTools/install/builds/RI-2019.1-win32/nxp_rt600_RI2019_newlib/xtensa-elf/lib/\libc.a(lib_a-fflush.o)
 .bss           0x0021dc1c        0x0 C:/usr/xtensa/XtDevTools/install/builds/RI-2019.1-win32/nxp_rt600_RI2019_newlib/xtensa-elf/lib/\libc.a(lib_a-findfp.o)
 .bss           0x0021dc1c        0x0 C:/usr/xtensa/XtDevTools/install/builds/RI-2019.1-win32/nxp_rt600_RI2019_newlib/xtensa-elf/lib/\libc.a(lib_a-fputwc.o)
 .bss           0x0021dc1c        0x0 C:/usr/xtensa/XtDevTools/install/builds/RI-2019.1-win32/nxp_rt600_RI2019_newlib/xtensa-elf/lib/\libc.a(lib_a-freer.o)
 .bss           0x0021dc1c        0x0 C:/usr/xtensa/XtDevTools/install/builds/RI-2019.1-win32/nxp_rt600_RI2019_newlib/xtensa-elf/lib/\libc.a(lib_a-fvwrite.o)
 .bss           0x0021dc1c        0x0 C:/usr/xtensa/XtDevTools/install/builds/RI-2019.1-win32/nxp_rt600_RI2019_newlib/xtensa-elf/lib/\libc.a(lib_a-fwalk.o)
 .bss           0x0021dc1c       0x10 C:/usr/xtensa/XtDevTools/install/builds/RI-2019.1-win32/nxp_rt600_RI2019_newlib/xtensa-elf/lib/\libc.a(lib_a-locale.o)
                0x0021dc20                __nlocale_changed
                0x0021dc24                __mlocale_changed
                0x0021dc28                _PathLocale
 .bss           0x0021dc2c        0x0 C:/usr/xtensa/XtDevTools/install/builds/RI-2019.1-win32/nxp_rt600_RI2019_newlib/xtensa-elf/lib/\libc.a(lib_a-makebuf.o)
 .bss           0x0021dc2c        0x0 C:/usr/xtensa/XtDevTools/install/builds/RI-2019.1-win32/nxp_rt600_RI2019_newlib/xtensa-elf/lib/\libc.a(lib_a-memchr.o)
 .bss           0x0021dc2c        0x0 C:/usr/xtensa/XtDevTools/install/builds/RI-2019.1-win32/nxp_rt600_RI2019_newlib/xtensa-elf/lib/\libc.a(lib_a-memmove.o)
 .bss           0x0021dc2c        0x0 C:/usr/xtensa/XtDevTools/install/builds/RI-2019.1-win32/nxp_rt600_RI2019_newlib/xtensa-elf/lib/\libc.a(lib_a-reallocr.o)
 .bss           0x0021dc2c        0x0 C:/usr/xtensa/XtDevTools/install/builds/RI-2019.1-win32/nxp_rt600_RI2019_newlib/xtensa-elf/lib/\libc.a(lib_a-signal.o)
 .bss           0x0021dc2c        0x0 C:/usr/xtensa/XtDevTools/install/builds/RI-2019.1-win32/nxp_rt600_RI2019_newlib/xtensa-elf/lib/\libc.a(lib_a-stdio.o)
 .bss           0x0021dc2c        0x0 C:/usr/xtensa/XtDevTools/install/builds/RI-2019.1-win32/nxp_rt600_RI2019_newlib/xtensa-elf/lib/\libc.a(lib_a-strcmp.o)
 .bss           0x0021dc2c        0x0 C:/usr/xtensa/XtDevTools/install/builds/RI-2019.1-win32/nxp_rt600_RI2019_newlib/xtensa-elf/lib/\libc.a(lib_a-wbuf.o)
 .bss           0x0021dc2c        0x0 C:/usr/xtensa/XtDevTools/install/builds/RI-2019.1-win32/nxp_rt600_RI2019_newlib/xtensa-elf/lib/\libc.a(lib_a-wcrtomb.o)
 .bss           0x0021dc2c        0x0 C:/usr/xtensa/XtDevTools/install/builds/RI-2019.1-win32/nxp_rt600_RI2019_newlib/xtensa-elf/lib/\libc.a(lib_a-wctomb_r.o)
 .bss           0x0021dc2c        0x0 C:/usr/xtensa/XtDevTools/install/builds/RI-2019.1-win32/nxp_rt600_RI2019_newlib/xtensa-elf/lib/\libc.a(isatty.o)
 .bss           0x0021dc2c        0x0 C:/usr/xtensa/XtDevTools/install/builds/RI-2019.1-win32/nxp_rt600_RI2019_newlib/xtensa-elf/lib/\libc.a(lib_a-fclose.o)
 .bss           0x0021dc2c        0x4 C:/usr/xtensa/XtDevTools/install/builds/RI-2019.1-win32/nxp_rt600_RI2019_newlib/xtensa-elf/lib/\libgdbio.a(close.o)
 .bss           0x0021dc30        0x0 C:/usr/xtensa/XtDevTools/install/builds/RI-2019.1-win32/nxp_rt600_RI2019_newlib/xtensa-elf/lib/\libgdbio.a(fstat.o)
 .bss           0x0021dc30        0x0 C:/usr/xtensa/XtDevTools/install/builds/RI-2019.1-win32/nxp_rt600_RI2019_newlib/xtensa-elf/lib/\libgdbio.a(kill.o)
 .bss           0x0021dc30        0x0 C:/usr/xtensa/XtDevTools/install/builds/RI-2019.1-win32/nxp_rt600_RI2019_newlib/xtensa-elf/lib/\libgdbio.a(libinit.o)
 .bss           0x0021dc30        0x0 C:/usr/xtensa/XtDevTools/install/builds/RI-2019.1-win32/nxp_rt600_RI2019_newlib/xtensa-elf/lib/\libgdbio.a(lseek.o)
 .bss           0x0021dc30        0x4 C:/usr/xtensa/XtDevTools/install/builds/RI-2019.1-win32/nxp_rt600_RI2019_newlib/xtensa-elf/lib/\libgdbio.a(read.o)
 .bss           0x0021dc34        0x0 C:/usr/xtensa/XtDevTools/install/builds/RI-2019.1-win32/nxp_rt600_RI2019_newlib/xtensa-elf/lib/\libgdbio.a(semihosting.o)
 .bss           0x0021dc34        0x0 C:/usr/xtensa/XtDevTools/install/builds/RI-2019.1-win32/nxp_rt600_RI2019_newlib/xtensa-elf/lib/\libgdbio.a(syscall.o)
 .bss           0x0021dc34        0x4 C:/usr/xtensa/XtDevTools/install/builds/RI-2019.1-win32/nxp_rt600_RI2019_newlib/xtensa-elf/lib/\libgdbio.a(write.o)
 .bss           0x0021dc38        0x0 C:/usr/xtensa/XtDevTools/install/builds/RI-2019.1-win32/nxp_rt600_RI2019_newlib/xtensa-elf/lib/\libgdbio.a(getpid.o)
 .bss           0x0021dc38        0x0 C:/usr/xtensa/XtDevTools/install/builds/RI-2019.1-win32/nxp_rt600_RI2019_newlib/xtensa-elf/lib/\libgdbio.a(miniboard.o)
 .bss           0x0021dc38        0x0 C:/usr/xtensa/XtDevTools/install/builds/RI-2019.1-win32/nxp_rt600_RI2019_newlib/xtensa-elf/lib/xcc/\libgcc.a(_umoddi3.o)
 .bss           0x0021dc38        0x0 C:/usr/xtensa/XtDevTools/install/builds/RI-2019.1-win32/nxp_rt600_RI2019_newlib/xtensa-elf/lib/xcc/crtend.o
 .bss           0x0021dc38        0x0 C:/usr/xtensa/XtDevTools/install/builds/RI-2019.1-win32/nxp_rt600_RI2019_newlib/xtensa-elf/lib/xcc/crtn.o
 *(SORT(.bss.sort.*))
 *(SORT(.bss.keepsort.*) .bss.keep.*)
 *(.bss.*)
 *(.gnu.linkonce.b.*)
 *(COMMON)
 *(.clib.bss)
 *(.clib.percpu.bss)
 *(.rtos.percpu.bss)
 .rtos.percpu.bss
                0x0021dc38        0x0 C:/usr/xtensa/XtDevTools/install/builds/RI-2019.1-win32/nxp_rt600_RI2019_newlib/xtensa-elf/arch/lib/\libhandler-reset.a(reset-vector.o)
 .rtos.percpu.bss
                0x0021dc38        0x0 C:/usr/xtensa/XtDevTools/install/builds/RI-2019.1-win32/nxp_rt600_RI2019_newlib/xtensa-elf/arch/lib/\libhandlers-board.a(exit.o)
 .rtos.percpu.bss
                0x0021dc38        0x0 C:/usr/xtensa/XtDevTools/install/builds/RI-2019.1-win32/nxp_rt600_RI2019_newlib/xtensa-elf/arch/lib/\libhandlers-board.a(memctl_default.o)
 *(.rtos.bss)
 .rtos.bss      0x0021dc38        0x0 C:/usr/xtensa/XtDevTools/install/builds/RI-2019.1-win32/nxp_rt600_RI2019_newlib/xtensa-elf/arch/lib/\libhal.a(windowspill_asm.o)
 .rtos.bss      0x0021dc38        0x0 C:/usr/xtensa/XtDevTools/install/builds/RI-2019.1-win32/nxp_rt600_RI2019_newlib/xtensa-elf/arch/lib/\libhal.a(cache_asm--dcache_all_writeback.o)
 .rtos.bss      0x0021dc38        0x0 C:/usr/xtensa/XtDevTools/install/builds/RI-2019.1-win32/nxp_rt600_RI2019_newlib/xtensa-elf/arch/lib/\libhal.a(cache_asm--hw_configid0.o)
 .rtos.bss      0x0021dc38        0x0 C:/usr/xtensa/XtDevTools/install/builds/RI-2019.1-win32/nxp_rt600_RI2019_newlib/xtensa-elf/arch/lib/\libhal.a(cache_asm--hw_configid1.o)
 .rtos.bss      0x0021dc38        0x0 C:/usr/xtensa/XtDevTools/install/builds/RI-2019.1-win32/nxp_rt600_RI2019_newlib/xtensa-elf/arch/lib/\libhal.a(cache_asm--release_major.o)
 .rtos.bss      0x0021dc38        0x0 C:/usr/xtensa/XtDevTools/install/builds/RI-2019.1-win32/nxp_rt600_RI2019_newlib/xtensa-elf/arch/lib/\libhal.a(cache_asm--release_minor.o)
 .rtos.bss      0x0021dc38        0x0 C:/usr/xtensa/XtDevTools/install/builds/RI-2019.1-win32/nxp_rt600_RI2019_newlib/xtensa-elf/arch/lib/\libhal.a(const--intlevel.o)
 .rtos.bss      0x0021dc38        0x0 C:/usr/xtensa/XtDevTools/install/builds/RI-2019.1-win32/nxp_rt600_RI2019_newlib/xtensa-elf/arch/lib/\libhal.a(const--intlevel_mask.o)
 .rtos.bss      0x0021dc38        0x0 C:/usr/xtensa/XtDevTools/install/builds/RI-2019.1-win32/nxp_rt600_RI2019_newlib/xtensa-elf/arch/lib/\libhal.a(const--timer_interrupt.o)
 .rtos.bss      0x0021dc38        0x0 C:/usr/xtensa/XtDevTools/install/builds/RI-2019.1-win32/nxp_rt600_RI2019_newlib/xtensa-elf/arch/lib/\libhal.a(attribute.o)
 .rtos.bss      0x0021dc38        0x0 C:/usr/xtensa/XtDevTools/install/builds/RI-2019.1-win32/nxp_rt600_RI2019_newlib/xtensa-elf/arch/lib/\libhal.a(clock.o)
 .rtos.bss      0x0021dc38        0x0 C:/usr/xtensa/XtDevTools/install/builds/RI-2019.1-win32/nxp_rt600_RI2019_newlib/xtensa-elf/arch/lib/\libhal.a(cache_attr--get_cacheattr.o)
 .rtos.bss      0x0021dc38        0x0 C:/usr/xtensa/XtDevTools/install/builds/RI-2019.1-win32/nxp_rt600_RI2019_newlib/xtensa-elf/arch/lib/\libhal.a(cache_attr--set_cacheattr.o)
 .rtos.bss      0x0021dc38        0x0 C:/usr/xtensa/XtDevTools/install/builds/RI-2019.1-win32/nxp_rt600_RI2019_newlib/xtensa-elf/arch/lib/\libhal.a(cache_asm--dcache_all_writeback_inv.o)
 .rtos.bss      0x0021dc38        0x0 C:/usr/xtensa/XtDevTools/install/builds/RI-2019.1-win32/nxp_rt600_RI2019_newlib/xtensa-elf/arch/lib/\libhal.a(cache_asm--icache_all_invalidate.o)
 *(.sram.bss)
                0x0021dc38                . = ALIGN (0x8)
                0x0021dc38                _bss_end = ABSOLUTE (.)
                0x0021dc38                _end = ALIGN (0x8)
                0x0021dc38                PROVIDE (end, ALIGN (0x8))
                0x0021dc38                _stack_sentry = ALIGN (0x8)
                0x0021dc38                _memmap_seg_dsp_core_end = ALIGN (0x8)
                0x00480000                PROVIDE (__stack, 0x480000)
                0x00480000                _heap_sentry = 0x480000

.debug
 *(.debug)

.line
 *(.line)

.debug_srcinfo
 *(.debug_srcinfo)

.debug_sfnames
 *(.debug_sfnames)

.debug_aranges  0x00000000     0x1000
 *(.debug_aranges)
 .debug_aranges
                0x00000000       0x20 C:/usr/xtensa/XtDevTools/install/builds/RI-2019.1-win32/nxp_rt600_RI2019_newlib/xtensa-elf/arch/lib/crt1-boards.o
 .debug_aranges
                0x00000020       0x20 MIMXRT685S/system_MIMXRT685S_dsp.o
 .debug_aranges
                0x00000040       0x20 board/pin_mux.o
 .debug_aranges
                0x00000060       0x20 component/lists/generic_list.o
 .debug_aranges
                0x00000080       0x20 component/serial_manager/serial_manager.o
 .debug_aranges
                0x000000a0       0x20 component/serial_manager/serial_port_uart.o
 .debug_aranges
                0x000000c0       0x20 component/uart/usart_adapter.o
 .debug_aranges
                0x000000e0       0x20 drivers/fsl_clock.o
 .debug_aranges
                0x00000100       0x20 drivers/fsl_common.o
 .debug_aranges
                0x00000120       0x20 drivers/fsl_flexcomm.o
 .debug_aranges
                0x00000140       0x20 drivers/fsl_gpio.o
 .debug_aranges
                0x00000160       0x20 drivers/fsl_reset.o
 .debug_aranges
                0x00000180       0x20 drivers/fsl_usart.o
 .debug_aranges
                0x000001a0       0x20 drivers_audio/fsl_dma.o
 .debug_aranges
                0x000001c0       0x20 drivers_audio/fsl_dmic.o
 .debug_aranges
                0x000001e0       0x20 drivers_audio/fsl_dmic_dma.o
 .debug_aranges
                0x00000200       0x20 drivers_audio/fsl_i2s.o
 .debug_aranges
                0x00000220       0x20 drivers_audio/fsl_i2s_dma.o
 .debug_aranges
                0x00000240       0x20 drivers_audio/fsl_inputmux.o
 .debug_aranges
                0x00000260       0x20 evkmimxrt685/board_hifi4.o
 .debug_aranges
                0x00000280       0x20 user/main.o
 .debug_aranges
                0x000002a0       0x20 user/user_pin_mux.o
 .debug_aranges
                0x000002c0       0x20 utilities/fsl_debug_console.o
 .debug_aranges
                0x000002e0       0x20 utilities/fsl_str.o
 .debug_aranges
                0x00000300       0x78 C:/usr/xtensa/XtDevTools/install/builds/RI-2019.1-win32/nxp_rt600_RI2019_newlib/xtensa-elf/arch/lib/\libxos.a(xos.o)
 .debug_aranges
                0x00000378       0x20 C:/usr/xtensa/XtDevTools/install/builds/RI-2019.1-win32/nxp_rt600_RI2019_newlib/xtensa-elf/arch/lib/\libxos.a(xos_exc_handler.o)
 .debug_aranges
                0x00000398       0x20 C:/usr/xtensa/XtDevTools/install/builds/RI-2019.1-win32/nxp_rt600_RI2019_newlib/xtensa-elf/arch/lib/\libxos.a(xos_start_main.o)
 .debug_aranges
                0x000003b8      0x120 C:/usr/xtensa/XtDevTools/install/builds/RI-2019.1-win32/nxp_rt600_RI2019_newlib/xtensa-elf/arch/lib/\libxos.a(xos_thread.o)
 .debug_aranges
                0x000004d8       0x78 C:/usr/xtensa/XtDevTools/install/builds/RI-2019.1-win32/nxp_rt600_RI2019_newlib/xtensa-elf/arch/lib/\libxos.a(xos_timer.o)
 .debug_aranges
                0x00000550       0x20 C:/usr/xtensa/XtDevTools/install/builds/RI-2019.1-win32/nxp_rt600_RI2019_newlib/xtensa-elf/arch/lib/\libxos.a(xos_handlers.o)
 .debug_aranges
                0x00000570       0x58 C:/usr/xtensa/XtDevTools/install/builds/RI-2019.1-win32/nxp_rt600_RI2019_newlib/xtensa-elf/arch/lib/\libxos.a(xos_vectors.o)
 .debug_aranges
                0x000005c8       0x20 C:/usr/xtensa/XtDevTools/install/builds/RI-2019.1-win32/nxp_rt600_RI2019_newlib/xtensa-elf/arch/lib/\libxos.a(xos_window_vectors.o)
 .debug_aranges
                0x000005e8       0x58 C:/usr/xtensa/XtDevTools/install/builds/RI-2019.1-win32/nxp_rt600_RI2019_newlib/xtensa-elf/arch/lib/\libxos.a(xos_clib.o)
 .debug_aranges
                0x00000640       0x20 C:/usr/xtensa/XtDevTools/install/builds/RI-2019.1-win32/nxp_rt600_RI2019_newlib/xtensa-elf/arch/lib/\libxos.a(xos_coproc_handler.o)
 .debug_aranges
                0x00000660       0x50 C:/usr/xtensa/XtDevTools/install/builds/RI-2019.1-win32/nxp_rt600_RI2019_newlib/xtensa-elf/arch/lib/\libxos.a(xos_mutex.o)
 .debug_aranges
                0x000006b0       0x28 C:/usr/xtensa/XtDevTools/install/builds/RI-2019.1-win32/nxp_rt600_RI2019_newlib/xtensa-elf/arch/lib/\libxos.a(xos_once.o)
 .debug_aranges
                0x000006d8       0x48 C:/usr/xtensa/XtDevTools/install/builds/RI-2019.1-win32/nxp_rt600_RI2019_newlib/xtensa-elf/arch/lib/\libxos.a(xos_system_timer.o)
 .debug_aranges
                0x00000720       0x20 C:/usr/xtensa/XtDevTools/install/builds/RI-2019.1-win32/nxp_rt600_RI2019_newlib/xtensa-elf/lib/xcc/\libgcc.a(_muldi3.o)
 .debug_aranges
                0x00000740       0x20 C:/usr/xtensa/XtDevTools/install/builds/RI-2019.1-win32/nxp_rt600_RI2019_newlib/xtensa-elf/lib/xcc/\libgcc.a(_udivdi3.o)
 .debug_aranges
                0x00000760       0x20 C:/usr/xtensa/XtDevTools/install/builds/RI-2019.1-win32/nxp_rt600_RI2019_newlib/xtensa-elf/lib/\libc.a(clibrary_init.o)
 .debug_aranges
                0x00000780       0x28 C:/usr/xtensa/XtDevTools/install/builds/RI-2019.1-win32/nxp_rt600_RI2019_newlib/xtensa-elf/lib/\libc.a(lib_a-assert.o)
 .debug_aranges
                0x000007a8       0x20 C:/usr/xtensa/XtDevTools/install/builds/RI-2019.1-win32/nxp_rt600_RI2019_newlib/xtensa-elf/lib/\libc.a(lib_a-exit.o)
 .debug_aranges
                0x000007c8       0x28 C:/usr/xtensa/XtDevTools/install/builds/RI-2019.1-win32/nxp_rt600_RI2019_newlib/xtensa-elf/lib/\libc.a(lib_a-fiprintf.o)
 .debug_aranges
                0x000007f0       0x28 C:/usr/xtensa/XtDevTools/install/builds/RI-2019.1-win32/nxp_rt600_RI2019_newlib/xtensa-elf/lib/\libc.a(lib_a-malloc.o)
 .debug_aranges
                0x00000818       0x20 C:/usr/xtensa/XtDevTools/install/builds/RI-2019.1-win32/nxp_rt600_RI2019_newlib/xtensa-elf/lib/\libc.a(lib_a-mallocr.o)
 .debug_aranges
                0x00000838       0x20 C:/usr/xtensa/XtDevTools/install/builds/RI-2019.1-win32/nxp_rt600_RI2019_newlib/xtensa-elf/lib/\libc.a(lib_a-memcpy.o)
 .debug_aranges
                0x00000858       0x20 C:/usr/xtensa/XtDevTools/install/builds/RI-2019.1-win32/nxp_rt600_RI2019_newlib/xtensa-elf/lib/\libc.a(lib_a-memset.o)
 .debug_aranges
                0x00000878       0x30 C:/usr/xtensa/XtDevTools/install/builds/RI-2019.1-win32/nxp_rt600_RI2019_newlib/xtensa-elf/lib/\libc.a(lib_a-reent.o)
 .debug_aranges
                0x000008a8       0x20 C:/usr/xtensa/XtDevTools/install/builds/RI-2019.1-win32/nxp_rt600_RI2019_newlib/xtensa-elf/lib/\libc.a(lib_a-strlen.o)
 .debug_aranges
                0x000008c8       0x28 C:/usr/xtensa/XtDevTools/install/builds/RI-2019.1-win32/nxp_rt600_RI2019_newlib/xtensa-elf/lib/\libc.a(lib_a-strtoul.o)
 .debug_aranges
                0x000008f0       0x38 C:/usr/xtensa/XtDevTools/install/builds/RI-2019.1-win32/nxp_rt600_RI2019_newlib/xtensa-elf/lib/\libc.a(lib_a-vfiprintf.o)
 .debug_aranges
                0x00000928       0x20 C:/usr/xtensa/XtDevTools/install/builds/RI-2019.1-win32/nxp_rt600_RI2019_newlib/xtensa-elf/lib/\libc.a(lib_a-wsetup.o)
 .debug_aranges
                0x00000948       0x20 C:/usr/xtensa/XtDevTools/install/builds/RI-2019.1-win32/nxp_rt600_RI2019_newlib/xtensa-elf/lib/\libc.a(_atexit.o)
 .debug_aranges
                0x00000968       0x20 C:/usr/xtensa/XtDevTools/install/builds/RI-2019.1-win32/nxp_rt600_RI2019_newlib/xtensa-elf/lib/\libc.a(lib_a-__call_atexit.o)
 .debug_aranges
                0x00000988       0x20 C:/usr/xtensa/XtDevTools/install/builds/RI-2019.1-win32/nxp_rt600_RI2019_newlib/xtensa-elf/lib/\libc.a(lib_a-abort.o)
 .debug_aranges
                0x000009a8       0x30 C:/usr/xtensa/XtDevTools/install/builds/RI-2019.1-win32/nxp_rt600_RI2019_newlib/xtensa-elf/lib/\libc.a(lib_a-fflush.o)
 .debug_aranges
                0x000009d8       0x80 C:/usr/xtensa/XtDevTools/install/builds/RI-2019.1-win32/nxp_rt600_RI2019_newlib/xtensa-elf/lib/\libc.a(lib_a-findfp.o)
 .debug_aranges
                0x00000a58       0x28 C:/usr/xtensa/XtDevTools/install/builds/RI-2019.1-win32/nxp_rt600_RI2019_newlib/xtensa-elf/lib/\libc.a(lib_a-fputwc.o)
 .debug_aranges
                0x00000a80       0x28 C:/usr/xtensa/XtDevTools/install/builds/RI-2019.1-win32/nxp_rt600_RI2019_newlib/xtensa-elf/lib/\libc.a(lib_a-freer.o)
 .debug_aranges
                0x00000aa8       0x20 C:/usr/xtensa/XtDevTools/install/builds/RI-2019.1-win32/nxp_rt600_RI2019_newlib/xtensa-elf/lib/\libc.a(lib_a-fvwrite.o)
 .debug_aranges
                0x00000ac8       0x28 C:/usr/xtensa/XtDevTools/install/builds/RI-2019.1-win32/nxp_rt600_RI2019_newlib/xtensa-elf/lib/\libc.a(lib_a-fwalk.o)
 .debug_aranges
                0x00000af0       0x58 C:/usr/xtensa/XtDevTools/install/builds/RI-2019.1-win32/nxp_rt600_RI2019_newlib/xtensa-elf/lib/\libc.a(lib_a-locale.o)
 .debug_aranges
                0x00000b48       0x20 C:/usr/xtensa/XtDevTools/install/builds/RI-2019.1-win32/nxp_rt600_RI2019_newlib/xtensa-elf/lib/\libc.a(lib_a-makebuf.o)
 .debug_aranges
                0x00000b68       0x20 C:/usr/xtensa/XtDevTools/install/builds/RI-2019.1-win32/nxp_rt600_RI2019_newlib/xtensa-elf/lib/\libc.a(lib_a-memchr.o)
 .debug_aranges
                0x00000b88       0x20 C:/usr/xtensa/XtDevTools/install/builds/RI-2019.1-win32/nxp_rt600_RI2019_newlib/xtensa-elf/lib/\libc.a(lib_a-memmove.o)
 .debug_aranges
                0x00000ba8       0x20 C:/usr/xtensa/XtDevTools/install/builds/RI-2019.1-win32/nxp_rt600_RI2019_newlib/xtensa-elf/lib/\libc.a(lib_a-reallocr.o)
 .debug_aranges
                0x00000bc8       0x58 C:/usr/xtensa/XtDevTools/install/builds/RI-2019.1-win32/nxp_rt600_RI2019_newlib/xtensa-elf/lib/\libc.a(lib_a-signal.o)
 .debug_aranges
                0x00000c20       0x40 C:/usr/xtensa/XtDevTools/install/builds/RI-2019.1-win32/nxp_rt600_RI2019_newlib/xtensa-elf/lib/\libc.a(lib_a-stdio.o)
 .debug_aranges
                0x00000c60       0x20 C:/usr/xtensa/XtDevTools/install/builds/RI-2019.1-win32/nxp_rt600_RI2019_newlib/xtensa-elf/lib/\libc.a(lib_a-strcmp.o)
 .debug_aranges
                0x00000c80       0x28 C:/usr/xtensa/XtDevTools/install/builds/RI-2019.1-win32/nxp_rt600_RI2019_newlib/xtensa-elf/lib/\libc.a(lib_a-wbuf.o)
 .debug_aranges
                0x00000ca8       0x28 C:/usr/xtensa/XtDevTools/install/builds/RI-2019.1-win32/nxp_rt600_RI2019_newlib/xtensa-elf/lib/\libc.a(lib_a-wcrtomb.o)
 .debug_aranges
                0x00000cd0       0x28 C:/usr/xtensa/XtDevTools/install/builds/RI-2019.1-win32/nxp_rt600_RI2019_newlib/xtensa-elf/lib/\libc.a(lib_a-wctomb_r.o)
 .debug_aranges
                0x00000cf8       0x20 C:/usr/xtensa/XtDevTools/install/builds/RI-2019.1-win32/nxp_rt600_RI2019_newlib/xtensa-elf/lib/\libc.a(isatty.o)
 .debug_aranges
                0x00000d18       0x28 C:/usr/xtensa/XtDevTools/install/builds/RI-2019.1-win32/nxp_rt600_RI2019_newlib/xtensa-elf/lib/\libc.a(lib_a-fclose.o)
 .debug_aranges
                0x00000d40       0x20 C:/usr/xtensa/XtDevTools/install/builds/RI-2019.1-win32/nxp_rt600_RI2019_newlib/xtensa-elf/lib/\libgdbio.a(close.o)
 .debug_aranges
                0x00000d60       0x20 C:/usr/xtensa/XtDevTools/install/builds/RI-2019.1-win32/nxp_rt600_RI2019_newlib/xtensa-elf/lib/\libgdbio.a(fstat.o)
 .debug_aranges
                0x00000d80       0x20 C:/usr/xtensa/XtDevTools/install/builds/RI-2019.1-win32/nxp_rt600_RI2019_newlib/xtensa-elf/lib/\libgdbio.a(kill.o)
 .debug_aranges
                0x00000da0       0x20 C:/usr/xtensa/XtDevTools/install/builds/RI-2019.1-win32/nxp_rt600_RI2019_newlib/xtensa-elf/lib/\libgdbio.a(libinit.o)
 .debug_aranges
                0x00000dc0       0x20 C:/usr/xtensa/XtDevTools/install/builds/RI-2019.1-win32/nxp_rt600_RI2019_newlib/xtensa-elf/lib/\libgdbio.a(lseek.o)
 .debug_aranges
                0x00000de0       0x20 C:/usr/xtensa/XtDevTools/install/builds/RI-2019.1-win32/nxp_rt600_RI2019_newlib/xtensa-elf/lib/\libgdbio.a(read.o)
 .debug_aranges
                0x00000e00       0x20 C:/usr/xtensa/XtDevTools/install/builds/RI-2019.1-win32/nxp_rt600_RI2019_newlib/xtensa-elf/lib/\libgdbio.a(semihosting.o)
 .debug_aranges
                0x00000e20       0x20 C:/usr/xtensa/XtDevTools/install/builds/RI-2019.1-win32/nxp_rt600_RI2019_newlib/xtensa-elf/lib/\libgdbio.a(syscall.o)
 .debug_aranges
                0x00000e40       0x20 C:/usr/xtensa/XtDevTools/install/builds/RI-2019.1-win32/nxp_rt600_RI2019_newlib/xtensa-elf/lib/\libgdbio.a(write.o)
 .debug_aranges
                0x00000e60       0x20 C:/usr/xtensa/XtDevTools/install/builds/RI-2019.1-win32/nxp_rt600_RI2019_newlib/xtensa-elf/lib/\libgdbio.a(getpid.o)
 .debug_aranges
                0x00000e80       0x20 C:/usr/xtensa/XtDevTools/install/builds/RI-2019.1-win32/nxp_rt600_RI2019_newlib/xtensa-elf/lib/\libgdbio.a(miniboard.o)
 .debug_aranges
                0x00000ea0       0x20 C:/usr/xtensa/XtDevTools/install/builds/RI-2019.1-win32/nxp_rt600_RI2019_newlib/xtensa-elf/arch/lib/\libhandler-reset.a(reset-vector.o)
 .debug_aranges
                0x00000ec0       0x20 C:/usr/xtensa/XtDevTools/install/builds/RI-2019.1-win32/nxp_rt600_RI2019_newlib/xtensa-elf/arch/lib/\libhandlers-board.a(exit.o)
 .debug_aranges
                0x00000ee0       0x20 C:/usr/xtensa/XtDevTools/install/builds/RI-2019.1-win32/nxp_rt600_RI2019_newlib/xtensa-elf/arch/lib/\libhal.a(windowspill_asm.o)
 .debug_aranges
                0x00000f00       0x20 C:/usr/xtensa/XtDevTools/install/builds/RI-2019.1-win32/nxp_rt600_RI2019_newlib/xtensa-elf/arch/lib/\libhal.a(cache_asm--dcache_all_writeback.o)
 .debug_aranges
                0x00000f20       0x20 C:/usr/xtensa/XtDevTools/install/builds/RI-2019.1-win32/nxp_rt600_RI2019_newlib/xtensa-elf/arch/lib/\libhal.a(attribute.o)
 .debug_aranges
                0x00000f40       0x20 C:/usr/xtensa/XtDevTools/install/builds/RI-2019.1-win32/nxp_rt600_RI2019_newlib/xtensa-elf/arch/lib/\libhal.a(clock.o)
 .debug_aranges
                0x00000f60       0x20 C:/usr/xtensa/XtDevTools/install/builds/RI-2019.1-win32/nxp_rt600_RI2019_newlib/xtensa-elf/arch/lib/\libhal.a(cache_attr--get_cacheattr.o)
 .debug_aranges
                0x00000f80       0x20 C:/usr/xtensa/XtDevTools/install/builds/RI-2019.1-win32/nxp_rt600_RI2019_newlib/xtensa-elf/arch/lib/\libhal.a(cache_attr--set_cacheattr.o)
 .debug_aranges
                0x00000fa0       0x20 C:/usr/xtensa/XtDevTools/install/builds/RI-2019.1-win32/nxp_rt600_RI2019_newlib/xtensa-elf/arch/lib/\libhal.a(cache_asm--dcache_all_writeback_inv.o)
 .debug_aranges
                0x00000fc0       0x20 C:/usr/xtensa/XtDevTools/install/builds/RI-2019.1-win32/nxp_rt600_RI2019_newlib/xtensa-elf/arch/lib/\libhal.a(cache_asm--icache_all_invalidate.o)
 .debug_aranges
                0x00000fe0       0x20 C:/usr/xtensa/XtDevTools/install/builds/RI-2019.1-win32/nxp_rt600_RI2019_newlib/xtensa-elf/lib/xcc/\libgcc.a(_umoddi3.o)

.debug_pubnames
                0x00000000     0x2cf0
 *(.debug_pubnames)
 .debug_pubnames
                0x00000000       0x62 MIMXRT685S/system_MIMXRT685S_dsp.o
 .debug_pubnames
                0x00000062       0x3c board/pin_mux.o
 .debug_pubnames
                0x0000009e       0xf4 component/lists/generic_list.o
 .debug_pubnames
                0x00000192      0x148 component/serial_manager/serial_manager.o
 .debug_pubnames
                0x000002da       0x9e component/serial_manager/serial_port_uart.o
 .debug_pubnames
                0x00000378       0x9e component/uart/usart_adapter.o
 .debug_pubnames
                0x00000416      0x2be drivers/fsl_clock.o
 .debug_pubnames
                0x000006d4       0x74 drivers/fsl_common.o
 .debug_pubnames
                0x00000748      0x1a2 drivers/fsl_flexcomm.o
 .debug_pubnames
                0x000008ea      0x12a drivers/fsl_gpio.o
 .debug_pubnames
                0x00000a14       0x68 drivers/fsl_reset.o
 .debug_pubnames
                0x00000a7c      0x229 drivers/fsl_usart.o
 .debug_pubnames
                0x00000ca5      0x295 drivers_audio/fsl_dma.o
 .debug_pubnames
                0x00000f3a      0x197 drivers_audio/fsl_dmic.o
 .debug_pubnames
                0x000010d1       0xb8 drivers_audio/fsl_dmic_dma.o
 .debug_pubnames
                0x00001189      0x1b5 drivers_audio/fsl_i2s.o
 .debug_pubnames
                0x0000133e       0xcf drivers_audio/fsl_i2s_dma.o
 .debug_pubnames
                0x0000140d       0x6c drivers_audio/fsl_inputmux.o
 .debug_pubnames
                0x00001479       0x2d evkmimxrt685/board_hifi4.o
 .debug_pubnames
                0x000014a6      0x1dd user/main.o
 .debug_pubnames
                0x00001683       0x29 user/user_pin_mux.o
 .debug_pubnames
                0x000016ac      0x168 utilities/fsl_debug_console.o
 .debug_pubnames
                0x00001814       0x39 utilities/fsl_str.o
 .debug_pubnames
                0x0000184d      0x195 C:/usr/xtensa/XtDevTools/install/builds/RI-2019.1-win32/nxp_rt600_RI2019_newlib/xtensa-elf/arch/lib/\libxos.a(xos.o)
 .debug_pubnames
                0x000019e2       0x25 C:/usr/xtensa/XtDevTools/install/builds/RI-2019.1-win32/nxp_rt600_RI2019_newlib/xtensa-elf/arch/lib/\libxos.a(xos_start_main.o)
 .debug_pubnames
                0x00001a07      0x416 C:/usr/xtensa/XtDevTools/install/builds/RI-2019.1-win32/nxp_rt600_RI2019_newlib/xtensa-elf/arch/lib/\libxos.a(xos_thread.o)
 .debug_pubnames
                0x00001e1d      0x16e C:/usr/xtensa/XtDevTools/install/builds/RI-2019.1-win32/nxp_rt600_RI2019_newlib/xtensa-elf/arch/lib/\libxos.a(xos_timer.o)
 .debug_pubnames
                0x00001f8b       0xab C:/usr/xtensa/XtDevTools/install/builds/RI-2019.1-win32/nxp_rt600_RI2019_newlib/xtensa-elf/arch/lib/\libxos.a(xos_clib.o)
 .debug_pubnames
                0x00002036       0x95 C:/usr/xtensa/XtDevTools/install/builds/RI-2019.1-win32/nxp_rt600_RI2019_newlib/xtensa-elf/arch/lib/\libxos.a(xos_mutex.o)
 .debug_pubnames
                0x000020cb       0x31 C:/usr/xtensa/XtDevTools/install/builds/RI-2019.1-win32/nxp_rt600_RI2019_newlib/xtensa-elf/arch/lib/\libxos.a(xos_once.o)
 .debug_pubnames
                0x000020fc       0x97 C:/usr/xtensa/XtDevTools/install/builds/RI-2019.1-win32/nxp_rt600_RI2019_newlib/xtensa-elf/arch/lib/\libxos.a(xos_system_timer.o)
 .debug_pubnames
                0x00002193       0x1f C:/usr/xtensa/XtDevTools/install/builds/RI-2019.1-win32/nxp_rt600_RI2019_newlib/xtensa-elf/lib/xcc/\libgcc.a(_muldi3.o)
 .debug_pubnames
                0x000021b2       0x20 C:/usr/xtensa/XtDevTools/install/builds/RI-2019.1-win32/nxp_rt600_RI2019_newlib/xtensa-elf/lib/xcc/\libgcc.a(_udivdi3.o)
 .debug_pubnames
                0x000021d2       0x35 C:/usr/xtensa/XtDevTools/install/builds/RI-2019.1-win32/nxp_rt600_RI2019_newlib/xtensa-elf/lib/\libc.a(clibrary_init.o)
 .debug_pubnames
                0x00002207       0x31 C:/usr/xtensa/XtDevTools/install/builds/RI-2019.1-win32/nxp_rt600_RI2019_newlib/xtensa-elf/lib/\libc.a(lib_a-assert.o)
 .debug_pubnames
                0x00002238       0x1e C:/usr/xtensa/XtDevTools/install/builds/RI-2019.1-win32/nxp_rt600_RI2019_newlib/xtensa-elf/lib/\libc.a(lib_a-environ.o)
 .debug_pubnames
                0x00002256       0x1b C:/usr/xtensa/XtDevTools/install/builds/RI-2019.1-win32/nxp_rt600_RI2019_newlib/xtensa-elf/lib/\libc.a(lib_a-exit.o)
 .debug_pubnames
                0x00002271       0x2f C:/usr/xtensa/XtDevTools/install/builds/RI-2019.1-win32/nxp_rt600_RI2019_newlib/xtensa-elf/lib/\libc.a(lib_a-fiprintf.o)
 .debug_pubnames
                0x000022a0       0x39 C:/usr/xtensa/XtDevTools/install/builds/RI-2019.1-win32/nxp_rt600_RI2019_newlib/xtensa-elf/lib/\libc.a(lib_a-impure.o)
 .debug_pubnames
                0x000022d9       0x26 C:/usr/xtensa/XtDevTools/install/builds/RI-2019.1-win32/nxp_rt600_RI2019_newlib/xtensa-elf/lib/\libc.a(lib_a-malloc.o)
 .debug_pubnames
                0x000022ff       0xce C:/usr/xtensa/XtDevTools/install/builds/RI-2019.1-win32/nxp_rt600_RI2019_newlib/xtensa-elf/lib/\libc.a(lib_a-mallocr.o)
 .debug_pubnames
                0x000023cd       0x48 C:/usr/xtensa/XtDevTools/install/builds/RI-2019.1-win32/nxp_rt600_RI2019_newlib/xtensa-elf/lib/\libc.a(lib_a-reent.o)
 .debug_pubnames
                0x00002415       0x2d C:/usr/xtensa/XtDevTools/install/builds/RI-2019.1-win32/nxp_rt600_RI2019_newlib/xtensa-elf/lib/\libc.a(lib_a-strtoul.o)
 .debug_pubnames
                0x00002442       0x40 C:/usr/xtensa/XtDevTools/install/builds/RI-2019.1-win32/nxp_rt600_RI2019_newlib/xtensa-elf/lib/\libc.a(lib_a-vfiprintf.o)
 .debug_pubnames
                0x00002482       0x22 C:/usr/xtensa/XtDevTools/install/builds/RI-2019.1-win32/nxp_rt600_RI2019_newlib/xtensa-elf/lib/\libc.a(lib_a-wsetup.o)
 .debug_pubnames
                0x000024a4       0x1e C:/usr/xtensa/XtDevTools/install/builds/RI-2019.1-win32/nxp_rt600_RI2019_newlib/xtensa-elf/lib/\libc.a(_atexit.o)
 .debug_pubnames
                0x000024c2       0x27 C:/usr/xtensa/XtDevTools/install/builds/RI-2019.1-win32/nxp_rt600_RI2019_newlib/xtensa-elf/lib/\libc.a(lib_a-__call_atexit.o)
 .debug_pubnames
                0x000024e9       0x1c C:/usr/xtensa/XtDevTools/install/builds/RI-2019.1-win32/nxp_rt600_RI2019_newlib/xtensa-elf/lib/\libc.a(lib_a-abort.o)
 .debug_pubnames
                0x00002505       0x30 C:/usr/xtensa/XtDevTools/install/builds/RI-2019.1-win32/nxp_rt600_RI2019_newlib/xtensa-elf/lib/\libc.a(lib_a-ctype_.o)
 .debug_pubnames
                0x00002535       0x3a C:/usr/xtensa/XtDevTools/install/builds/RI-2019.1-win32/nxp_rt600_RI2019_newlib/xtensa-elf/lib/\libc.a(lib_a-fflush.o)
 .debug_pubnames
                0x0000256f       0xdb C:/usr/xtensa/XtDevTools/install/builds/RI-2019.1-win32/nxp_rt600_RI2019_newlib/xtensa-elf/lib/\libc.a(lib_a-findfp.o)
 .debug_pubnames
                0x0000264a       0x2b C:/usr/xtensa/XtDevTools/install/builds/RI-2019.1-win32/nxp_rt600_RI2019_newlib/xtensa-elf/lib/\libc.a(lib_a-fputwc.o)
 .debug_pubnames
                0x00002675       0x31 C:/usr/xtensa/XtDevTools/install/builds/RI-2019.1-win32/nxp_rt600_RI2019_newlib/xtensa-elf/lib/\libc.a(lib_a-freer.o)
 .debug_pubnames
                0x000026a6       0x23 C:/usr/xtensa/XtDevTools/install/builds/RI-2019.1-win32/nxp_rt600_RI2019_newlib/xtensa-elf/lib/\libc.a(lib_a-fvwrite.o)
 .debug_pubnames
                0x000026c9       0x2e C:/usr/xtensa/XtDevTools/install/builds/RI-2019.1-win32/nxp_rt600_RI2019_newlib/xtensa-elf/lib/\libc.a(lib_a-fwalk.o)
 .debug_pubnames
                0x000026f7       0xfa C:/usr/xtensa/XtDevTools/install/builds/RI-2019.1-win32/nxp_rt600_RI2019_newlib/xtensa-elf/lib/\libc.a(lib_a-locale.o)
 .debug_pubnames
                0x000027f1       0x23 C:/usr/xtensa/XtDevTools/install/builds/RI-2019.1-win32/nxp_rt600_RI2019_newlib/xtensa-elf/lib/\libc.a(lib_a-makebuf.o)
 .debug_pubnames
                0x00002814       0x1d C:/usr/xtensa/XtDevTools/install/builds/RI-2019.1-win32/nxp_rt600_RI2019_newlib/xtensa-elf/lib/\libc.a(lib_a-memchr.o)
 .debug_pubnames
                0x00002831       0x1e C:/usr/xtensa/XtDevTools/install/builds/RI-2019.1-win32/nxp_rt600_RI2019_newlib/xtensa-elf/lib/\libc.a(lib_a-memmove.o)
 .debug_pubnames
                0x0000284f       0x21 C:/usr/xtensa/XtDevTools/install/builds/RI-2019.1-win32/nxp_rt600_RI2019_newlib/xtensa-elf/lib/\libc.a(lib_a-reallocr.o)
 .debug_pubnames
                0x00002870       0x86 C:/usr/xtensa/XtDevTools/install/builds/RI-2019.1-win32/nxp_rt600_RI2019_newlib/xtensa-elf/lib/\libc.a(lib_a-signal.o)
 .debug_pubnames
                0x000028f6       0x53 C:/usr/xtensa/XtDevTools/install/builds/RI-2019.1-win32/nxp_rt600_RI2019_newlib/xtensa-elf/lib/\libc.a(lib_a-stdio.o)
 .debug_pubnames
                0x00002949       0x2c C:/usr/xtensa/XtDevTools/install/builds/RI-2019.1-win32/nxp_rt600_RI2019_newlib/xtensa-elf/lib/\libc.a(lib_a-wbuf.o)
 .debug_pubnames
                0x00002975       0x2d C:/usr/xtensa/XtDevTools/install/builds/RI-2019.1-win32/nxp_rt600_RI2019_newlib/xtensa-elf/lib/\libc.a(lib_a-wcrtomb.o)
 .debug_pubnames
                0x000029a2       0x40 C:/usr/xtensa/XtDevTools/install/builds/RI-2019.1-win32/nxp_rt600_RI2019_newlib/xtensa-elf/lib/\libc.a(lib_a-wctomb_r.o)
 .debug_pubnames
                0x000029e2       0x20 C:/usr/xtensa/XtDevTools/install/builds/RI-2019.1-win32/nxp_rt600_RI2019_newlib/xtensa-elf/lib/\libc.a(isatty.o)
 .debug_pubnames
                0x00002a02       0x2b C:/usr/xtensa/XtDevTools/install/builds/RI-2019.1-win32/nxp_rt600_RI2019_newlib/xtensa-elf/lib/\libc.a(lib_a-fclose.o)
 .debug_pubnames
                0x00002a2d       0x1f C:/usr/xtensa/XtDevTools/install/builds/RI-2019.1-win32/nxp_rt600_RI2019_newlib/xtensa-elf/lib/\libgdbio.a(close.o)
 .debug_pubnames
                0x00002a4c       0x1f C:/usr/xtensa/XtDevTools/install/builds/RI-2019.1-win32/nxp_rt600_RI2019_newlib/xtensa-elf/lib/\libgdbio.a(fstat.o)
 .debug_pubnames
                0x00002a6b       0x1e C:/usr/xtensa/XtDevTools/install/builds/RI-2019.1-win32/nxp_rt600_RI2019_newlib/xtensa-elf/lib/\libgdbio.a(kill.o)
 .debug_pubnames
                0x00002a89       0x1f C:/usr/xtensa/XtDevTools/install/builds/RI-2019.1-win32/nxp_rt600_RI2019_newlib/xtensa-elf/lib/\libgdbio.a(lseek.o)
 .debug_pubnames
                0x00002aa8       0x1e C:/usr/xtensa/XtDevTools/install/builds/RI-2019.1-win32/nxp_rt600_RI2019_newlib/xtensa-elf/lib/\libgdbio.a(read.o)
 .debug_pubnames
                0x00002ac6       0xfe C:/usr/xtensa/XtDevTools/install/builds/RI-2019.1-win32/nxp_rt600_RI2019_newlib/xtensa-elf/lib/\libgdbio.a(semihosting.o)
 .debug_pubnames
                0x00002bc4       0x1f C:/usr/xtensa/XtDevTools/install/builds/RI-2019.1-win32/nxp_rt600_RI2019_newlib/xtensa-elf/lib/\libgdbio.a(write.o)
 .debug_pubnames
                0x00002be3       0x20 C:/usr/xtensa/XtDevTools/install/builds/RI-2019.1-win32/nxp_rt600_RI2019_newlib/xtensa-elf/lib/\libgdbio.a(getpid.o)
 .debug_pubnames
                0x00002c03       0x21 C:/usr/xtensa/XtDevTools/install/builds/RI-2019.1-win32/nxp_rt600_RI2019_newlib/xtensa-elf/lib/\libgdbio.a(miniboard.o)
 .debug_pubnames
                0x00002c24       0x25 C:/usr/xtensa/XtDevTools/install/builds/RI-2019.1-win32/nxp_rt600_RI2019_newlib/xtensa-elf/arch/lib/\libhal.a(const--intlevel.o)
 .debug_pubnames
                0x00002c49       0x2a C:/usr/xtensa/XtDevTools/install/builds/RI-2019.1-win32/nxp_rt600_RI2019_newlib/xtensa-elf/arch/lib/\libhal.a(const--intlevel_mask.o)
 .debug_pubnames
                0x00002c73       0x2c C:/usr/xtensa/XtDevTools/install/builds/RI-2019.1-win32/nxp_rt600_RI2019_newlib/xtensa-elf/arch/lib/\libhal.a(const--timer_interrupt.o)
 .debug_pubnames
                0x00002c9f       0x31 C:/usr/xtensa/XtDevTools/install/builds/RI-2019.1-win32/nxp_rt600_RI2019_newlib/xtensa-elf/arch/lib/\libhal.a(attribute.o)
 .debug_pubnames
                0x00002cd0       0x20 C:/usr/xtensa/XtDevTools/install/builds/RI-2019.1-win32/nxp_rt600_RI2019_newlib/xtensa-elf/lib/xcc/\libgcc.a(_umoddi3.o)

.debug_info     0x00000000    0x70de9
 *(.debug_info)
 .debug_info    0x00000000       0xdd C:/usr/xtensa/XtDevTools/install/builds/RI-2019.1-win32/nxp_rt600_RI2019_newlib/xtensa-elf/arch/lib/crt1-boards.o
 .debug_info    0x000000dd     0x1181 MIMXRT685S/system_MIMXRT685S_dsp.o
 .debug_info    0x0000125e      0xb42 board/pin_mux.o
 .debug_info    0x00001da0     0x106a component/lists/generic_list.o
 .debug_info    0x00002e0a     0x18ba component/serial_manager/serial_manager.o
 .debug_info    0x000046c4     0x153f component/serial_manager/serial_port_uart.o
 .debug_info    0x00005c03     0x198a component/uart/usart_adapter.o
 .debug_info    0x0000758d     0x3c9e drivers/fsl_clock.o
 .debug_info    0x0000b22b      0xd1f drivers/fsl_common.o
 .debug_info    0x0000bf4a     0x2ad2 drivers/fsl_flexcomm.o
 .debug_info    0x0000ea1c     0x289b drivers/fsl_gpio.o
 .debug_info    0x000112b7     0x142f drivers/fsl_reset.o
 .debug_info    0x000126e6     0x2914 drivers/fsl_usart.o
 .debug_info    0x00014ffa     0x4397 drivers_audio/fsl_dma.o
 .debug_info    0x00019391     0x337e drivers_audio/fsl_dmic.o
 .debug_info    0x0001c70f     0x1ddd drivers_audio/fsl_dmic_dma.o
 .debug_info    0x0001e4ec     0x2486 drivers_audio/fsl_i2s.o
 .debug_info    0x00020972     0x21fb drivers_audio/fsl_i2s_dma.o
 .debug_info    0x00022b6d     0x6ddb drivers_audio/fsl_inputmux.o
 .debug_info    0x00029948     0x293e evkmimxrt685/board_hifi4.o
 .debug_info    0x0002c286     0xb19c user/main.o
 .debug_info    0x00037422      0xcd3 user/user_pin_mux.o
 .debug_info    0x000380f5     0x18dd utilities/fsl_debug_console.o
 .debug_info    0x000399d2     0x16c8 utilities/fsl_str.o
 .debug_info    0x0003b09a     0x249c C:/usr/xtensa/XtDevTools/install/builds/RI-2019.1-win32/nxp_rt600_RI2019_newlib/xtensa-elf/arch/lib/\libxos.a(xos.o)
 .debug_info    0x0003d536       0xea C:/usr/xtensa/XtDevTools/install/builds/RI-2019.1-win32/nxp_rt600_RI2019_newlib/xtensa-elf/arch/lib/\libxos.a(xos_exc_handler.o)
 .debug_info    0x0003d620     0x2036 C:/usr/xtensa/XtDevTools/install/builds/RI-2019.1-win32/nxp_rt600_RI2019_newlib/xtensa-elf/arch/lib/\libxos.a(xos_start_main.o)
 .debug_info    0x0003f656     0x31c0 C:/usr/xtensa/XtDevTools/install/builds/RI-2019.1-win32/nxp_rt600_RI2019_newlib/xtensa-elf/arch/lib/\libxos.a(xos_thread.o)
 .debug_info    0x00042816     0x26aa C:/usr/xtensa/XtDevTools/install/builds/RI-2019.1-win32/nxp_rt600_RI2019_newlib/xtensa-elf/arch/lib/\libxos.a(xos_timer.o)
 .debug_info    0x00044ec0       0xe7 C:/usr/xtensa/XtDevTools/install/builds/RI-2019.1-win32/nxp_rt600_RI2019_newlib/xtensa-elf/arch/lib/\libxos.a(xos_handlers.o)
 .debug_info    0x00044fa7       0xe2 C:/usr/xtensa/XtDevTools/install/builds/RI-2019.1-win32/nxp_rt600_RI2019_newlib/xtensa-elf/arch/lib/\libxos.a(xos_vectors.o)
 .debug_info    0x00045089       0xed C:/usr/xtensa/XtDevTools/install/builds/RI-2019.1-win32/nxp_rt600_RI2019_newlib/xtensa-elf/arch/lib/\libxos.a(xos_window_vectors.o)
 .debug_info    0x00045176     0x21d5 C:/usr/xtensa/XtDevTools/install/builds/RI-2019.1-win32/nxp_rt600_RI2019_newlib/xtensa-elf/arch/lib/\libxos.a(xos_clib.o)
 .debug_info    0x0004734b       0xed C:/usr/xtensa/XtDevTools/install/builds/RI-2019.1-win32/nxp_rt600_RI2019_newlib/xtensa-elf/arch/lib/\libxos.a(xos_coproc_handler.o)
 .debug_info    0x00047438     0x22f2 C:/usr/xtensa/XtDevTools/install/builds/RI-2019.1-win32/nxp_rt600_RI2019_newlib/xtensa-elf/arch/lib/\libxos.a(xos_mutex.o)
 .debug_info    0x0004972a     0x1f50 C:/usr/xtensa/XtDevTools/install/builds/RI-2019.1-win32/nxp_rt600_RI2019_newlib/xtensa-elf/arch/lib/\libxos.a(xos_once.o)
 .debug_info    0x0004b67a     0x205f C:/usr/xtensa/XtDevTools/install/builds/RI-2019.1-win32/nxp_rt600_RI2019_newlib/xtensa-elf/arch/lib/\libxos.a(xos_system_timer.o)
 .debug_info    0x0004d6d9      0x268 C:/usr/xtensa/XtDevTools/install/builds/RI-2019.1-win32/nxp_rt600_RI2019_newlib/xtensa-elf/lib/xcc/\libgcc.a(_muldi3.o)
 .debug_info    0x0004d941      0x273 C:/usr/xtensa/XtDevTools/install/builds/RI-2019.1-win32/nxp_rt600_RI2019_newlib/xtensa-elf/lib/xcc/\libgcc.a(_udivdi3.o)
 .debug_info    0x0004dbb4      0x21a C:/usr/xtensa/XtDevTools/install/builds/RI-2019.1-win32/nxp_rt600_RI2019_newlib/xtensa-elf/lib/\libc.a(clibrary_init.o)
 .debug_info    0x0004ddce      0xd70 C:/usr/xtensa/XtDevTools/install/builds/RI-2019.1-win32/nxp_rt600_RI2019_newlib/xtensa-elf/lib/\libc.a(lib_a-assert.o)
 .debug_info    0x0004eb3e      0x19b C:/usr/xtensa/XtDevTools/install/builds/RI-2019.1-win32/nxp_rt600_RI2019_newlib/xtensa-elf/lib/\libc.a(lib_a-environ.o)
 .debug_info    0x0004ecd9      0xc6e C:/usr/xtensa/XtDevTools/install/builds/RI-2019.1-win32/nxp_rt600_RI2019_newlib/xtensa-elf/lib/\libc.a(lib_a-exit.o)
 .debug_info    0x0004f947      0xd9c C:/usr/xtensa/XtDevTools/install/builds/RI-2019.1-win32/nxp_rt600_RI2019_newlib/xtensa-elf/lib/\libc.a(lib_a-fiprintf.o)
 .debug_info    0x000506e3      0xc23 C:/usr/xtensa/XtDevTools/install/builds/RI-2019.1-win32/nxp_rt600_RI2019_newlib/xtensa-elf/lib/\libc.a(lib_a-impure.o)
 .debug_info    0x00051306      0xcb1 C:/usr/xtensa/XtDevTools/install/builds/RI-2019.1-win32/nxp_rt600_RI2019_newlib/xtensa-elf/lib/\libc.a(lib_a-malloc.o)
 .debug_info    0x00051fb7     0x1067 C:/usr/xtensa/XtDevTools/install/builds/RI-2019.1-win32/nxp_rt600_RI2019_newlib/xtensa-elf/lib/\libc.a(lib_a-mallocr.o)
 .debug_info    0x0005301e      0x121 C:/usr/xtensa/XtDevTools/install/builds/RI-2019.1-win32/nxp_rt600_RI2019_newlib/xtensa-elf/lib/\libc.a(lib_a-memcpy.o)
 .debug_info    0x0005313f      0x121 C:/usr/xtensa/XtDevTools/install/builds/RI-2019.1-win32/nxp_rt600_RI2019_newlib/xtensa-elf/lib/\libc.a(lib_a-memset.o)
 .debug_info    0x00053260      0xd2b C:/usr/xtensa/XtDevTools/install/builds/RI-2019.1-win32/nxp_rt600_RI2019_newlib/xtensa-elf/lib/\libc.a(lib_a-reent.o)
 .debug_info    0x00053f8b      0x121 C:/usr/xtensa/XtDevTools/install/builds/RI-2019.1-win32/nxp_rt600_RI2019_newlib/xtensa-elf/lib/\libc.a(lib_a-strlen.o)
 .debug_info    0x000540ac      0xd4f C:/usr/xtensa/XtDevTools/install/builds/RI-2019.1-win32/nxp_rt600_RI2019_newlib/xtensa-elf/lib/\libc.a(lib_a-strtoul.o)
 .debug_info    0x00054dfb     0x1357 C:/usr/xtensa/XtDevTools/install/builds/RI-2019.1-win32/nxp_rt600_RI2019_newlib/xtensa-elf/lib/\libc.a(lib_a-vfiprintf.o)
 .debug_info    0x00056152      0xc95 C:/usr/xtensa/XtDevTools/install/builds/RI-2019.1-win32/nxp_rt600_RI2019_newlib/xtensa-elf/lib/\libc.a(lib_a-wsetup.o)
 .debug_info    0x00056de7      0xc73 C:/usr/xtensa/XtDevTools/install/builds/RI-2019.1-win32/nxp_rt600_RI2019_newlib/xtensa-elf/lib/\libc.a(_atexit.o)
 .debug_info    0x00057a5a      0xcee C:/usr/xtensa/XtDevTools/install/builds/RI-2019.1-win32/nxp_rt600_RI2019_newlib/xtensa-elf/lib/\libc.a(lib_a-__call_atexit.o)
 .debug_info    0x00058748      0x177 C:/usr/xtensa/XtDevTools/install/builds/RI-2019.1-win32/nxp_rt600_RI2019_newlib/xtensa-elf/lib/\libc.a(lib_a-abort.o)
 .debug_info    0x000588bf      0x1a0 C:/usr/xtensa/XtDevTools/install/builds/RI-2019.1-win32/nxp_rt600_RI2019_newlib/xtensa-elf/lib/\libc.a(lib_a-ctype_.o)
 .debug_info    0x00058a5f      0xd7d C:/usr/xtensa/XtDevTools/install/builds/RI-2019.1-win32/nxp_rt600_RI2019_newlib/xtensa-elf/lib/\libc.a(lib_a-fflush.o)
 .debug_info    0x000597dc      0xf4b C:/usr/xtensa/XtDevTools/install/builds/RI-2019.1-win32/nxp_rt600_RI2019_newlib/xtensa-elf/lib/\libc.a(lib_a-findfp.o)
 .debug_info    0x0005a727      0xd45 C:/usr/xtensa/XtDevTools/install/builds/RI-2019.1-win32/nxp_rt600_RI2019_newlib/xtensa-elf/lib/\libc.a(lib_a-fputwc.o)
 .debug_info    0x0005b46c      0xfb7 C:/usr/xtensa/XtDevTools/install/builds/RI-2019.1-win32/nxp_rt600_RI2019_newlib/xtensa-elf/lib/\libc.a(lib_a-freer.o)
 .debug_info    0x0005c423      0xde3 C:/usr/xtensa/XtDevTools/install/builds/RI-2019.1-win32/nxp_rt600_RI2019_newlib/xtensa-elf/lib/\libc.a(lib_a-fvwrite.o)
 .debug_info    0x0005d206      0xd49 C:/usr/xtensa/XtDevTools/install/builds/RI-2019.1-win32/nxp_rt600_RI2019_newlib/xtensa-elf/lib/\libc.a(lib_a-fwalk.o)
 .debug_info    0x0005df4f     0x1274 C:/usr/xtensa/XtDevTools/install/builds/RI-2019.1-win32/nxp_rt600_RI2019_newlib/xtensa-elf/lib/\libc.a(lib_a-locale.o)
 .debug_info    0x0005f1c3      0xedd C:/usr/xtensa/XtDevTools/install/builds/RI-2019.1-win32/nxp_rt600_RI2019_newlib/xtensa-elf/lib/\libc.a(lib_a-makebuf.o)
 .debug_info    0x000600a0      0x29e C:/usr/xtensa/XtDevTools/install/builds/RI-2019.1-win32/nxp_rt600_RI2019_newlib/xtensa-elf/lib/\libc.a(lib_a-memchr.o)
 .debug_info    0x0006033e      0x269 C:/usr/xtensa/XtDevTools/install/builds/RI-2019.1-win32/nxp_rt600_RI2019_newlib/xtensa-elf/lib/\libc.a(lib_a-memmove.o)
 .debug_info    0x000605a7      0xf62 C:/usr/xtensa/XtDevTools/install/builds/RI-2019.1-win32/nxp_rt600_RI2019_newlib/xtensa-elf/lib/\libc.a(lib_a-reallocr.o)
 .debug_info    0x00061509      0xe98 C:/usr/xtensa/XtDevTools/install/builds/RI-2019.1-win32/nxp_rt600_RI2019_newlib/xtensa-elf/lib/\libc.a(lib_a-signal.o)
 .debug_info    0x000623a1      0xe8d C:/usr/xtensa/XtDevTools/install/builds/RI-2019.1-win32/nxp_rt600_RI2019_newlib/xtensa-elf/lib/\libc.a(lib_a-stdio.o)
 .debug_info    0x0006322e      0x121 C:/usr/xtensa/XtDevTools/install/builds/RI-2019.1-win32/nxp_rt600_RI2019_newlib/xtensa-elf/lib/\libc.a(lib_a-strcmp.o)
 .debug_info    0x0006334f      0xce4 C:/usr/xtensa/XtDevTools/install/builds/RI-2019.1-win32/nxp_rt600_RI2019_newlib/xtensa-elf/lib/\libc.a(lib_a-wbuf.o)
 .debug_info    0x00064033      0xd6f C:/usr/xtensa/XtDevTools/install/builds/RI-2019.1-win32/nxp_rt600_RI2019_newlib/xtensa-elf/lib/\libc.a(lib_a-wcrtomb.o)
 .debug_info    0x00064da2      0xd6e C:/usr/xtensa/XtDevTools/install/builds/RI-2019.1-win32/nxp_rt600_RI2019_newlib/xtensa-elf/lib/\libc.a(lib_a-wctomb_r.o)
 .debug_info    0x00065b10      0xe91 C:/usr/xtensa/XtDevTools/install/builds/RI-2019.1-win32/nxp_rt600_RI2019_newlib/xtensa-elf/lib/\libc.a(isatty.o)
 .debug_info    0x000669a1      0xcd3 C:/usr/xtensa/XtDevTools/install/builds/RI-2019.1-win32/nxp_rt600_RI2019_newlib/xtensa-elf/lib/\libc.a(lib_a-fclose.o)
 .debug_info    0x00067674      0xcc1 C:/usr/xtensa/XtDevTools/install/builds/RI-2019.1-win32/nxp_rt600_RI2019_newlib/xtensa-elf/lib/\libgdbio.a(close.o)
 .debug_info    0x00068335      0xfce C:/usr/xtensa/XtDevTools/install/builds/RI-2019.1-win32/nxp_rt600_RI2019_newlib/xtensa-elf/lib/\libgdbio.a(fstat.o)
 .debug_info    0x00069303      0xc17 C:/usr/xtensa/XtDevTools/install/builds/RI-2019.1-win32/nxp_rt600_RI2019_newlib/xtensa-elf/lib/\libgdbio.a(kill.o)
 .debug_info    0x00069f1a       0xe5 C:/usr/xtensa/XtDevTools/install/builds/RI-2019.1-win32/nxp_rt600_RI2019_newlib/xtensa-elf/lib/\libgdbio.a(libinit.o)
 .debug_info    0x00069fff      0xcf3 C:/usr/xtensa/XtDevTools/install/builds/RI-2019.1-win32/nxp_rt600_RI2019_newlib/xtensa-elf/lib/\libgdbio.a(lseek.o)
 .debug_info    0x0006acf2      0xd03 C:/usr/xtensa/XtDevTools/install/builds/RI-2019.1-win32/nxp_rt600_RI2019_newlib/xtensa-elf/lib/\libgdbio.a(read.o)
 .debug_info    0x0006b9f5      0xf74 C:/usr/xtensa/XtDevTools/install/builds/RI-2019.1-win32/nxp_rt600_RI2019_newlib/xtensa-elf/lib/\libgdbio.a(semihosting.o)
 .debug_info    0x0006c969       0xe5 C:/usr/xtensa/XtDevTools/install/builds/RI-2019.1-win32/nxp_rt600_RI2019_newlib/xtensa-elf/lib/\libgdbio.a(syscall.o)
 .debug_info    0x0006ca4e      0xd12 C:/usr/xtensa/XtDevTools/install/builds/RI-2019.1-win32/nxp_rt600_RI2019_newlib/xtensa-elf/lib/\libgdbio.a(write.o)
 .debug_info    0x0006d760      0xc03 C:/usr/xtensa/XtDevTools/install/builds/RI-2019.1-win32/nxp_rt600_RI2019_newlib/xtensa-elf/lib/\libgdbio.a(getpid.o)
 .debug_info    0x0006e363      0x107 C:/usr/xtensa/XtDevTools/install/builds/RI-2019.1-win32/nxp_rt600_RI2019_newlib/xtensa-elf/lib/\libgdbio.a(miniboard.o)
 .debug_info    0x0006e46a       0xef C:/usr/xtensa/XtDevTools/install/builds/RI-2019.1-win32/nxp_rt600_RI2019_newlib/xtensa-elf/arch/lib/\libhandler-reset.a(reset-vector.o)
 .debug_info    0x0006e559       0xdd C:/usr/xtensa/XtDevTools/install/builds/RI-2019.1-win32/nxp_rt600_RI2019_newlib/xtensa-elf/arch/lib/\libhandlers-board.a(exit.o)
 .debug_info    0x0006e636       0xe6 C:/usr/xtensa/XtDevTools/install/builds/RI-2019.1-win32/nxp_rt600_RI2019_newlib/xtensa-elf/arch/lib/\libhal.a(windowspill_asm.o)
 .debug_info    0x0006e71c       0xe0 C:/usr/xtensa/XtDevTools/install/builds/RI-2019.1-win32/nxp_rt600_RI2019_newlib/xtensa-elf/arch/lib/\libhal.a(cache_asm--dcache_all_writeback.o)
 .debug_info    0x0006e7fc      0x741 C:/usr/xtensa/XtDevTools/install/builds/RI-2019.1-win32/nxp_rt600_RI2019_newlib/xtensa-elf/arch/lib/\libhal.a(const--intlevel.o)
 .debug_info    0x0006ef3d      0x72b C:/usr/xtensa/XtDevTools/install/builds/RI-2019.1-win32/nxp_rt600_RI2019_newlib/xtensa-elf/arch/lib/\libhal.a(const--intlevel_mask.o)
 .debug_info    0x0006f668      0x72d C:/usr/xtensa/XtDevTools/install/builds/RI-2019.1-win32/nxp_rt600_RI2019_newlib/xtensa-elf/arch/lib/\libhal.a(const--timer_interrupt.o)
 .debug_info    0x0006fd95      0x94f C:/usr/xtensa/XtDevTools/install/builds/RI-2019.1-win32/nxp_rt600_RI2019_newlib/xtensa-elf/arch/lib/\libhal.a(attribute.o)
 .debug_info    0x000706e4       0xea C:/usr/xtensa/XtDevTools/install/builds/RI-2019.1-win32/nxp_rt600_RI2019_newlib/xtensa-elf/arch/lib/\libhal.a(clock.o)
 .debug_info    0x000707ce       0xef C:/usr/xtensa/XtDevTools/install/builds/RI-2019.1-win32/nxp_rt600_RI2019_newlib/xtensa-elf/arch/lib/\libhal.a(cache_attr--get_cacheattr.o)
 .debug_info    0x000708bd       0xef C:/usr/xtensa/XtDevTools/install/builds/RI-2019.1-win32/nxp_rt600_RI2019_newlib/xtensa-elf/arch/lib/\libhal.a(cache_attr--set_cacheattr.o)
 .debug_info    0x000709ac       0xe0 C:/usr/xtensa/XtDevTools/install/builds/RI-2019.1-win32/nxp_rt600_RI2019_newlib/xtensa-elf/arch/lib/\libhal.a(cache_asm--dcache_all_writeback_inv.o)
 .debug_info    0x00070a8c       0xe0 C:/usr/xtensa/XtDevTools/install/builds/RI-2019.1-win32/nxp_rt600_RI2019_newlib/xtensa-elf/arch/lib/\libhal.a(cache_asm--icache_all_invalidate.o)
 .debug_info    0x00070b6c      0x27d C:/usr/xtensa/XtDevTools/install/builds/RI-2019.1-win32/nxp_rt600_RI2019_newlib/xtensa-elf/lib/xcc/\libgcc.a(_umoddi3.o)

.debug_abbrev   0x00000000     0x72a7
 *(.debug_abbrev)
 .debug_abbrev  0x00000000       0x14 C:/usr/xtensa/XtDevTools/install/builds/RI-2019.1-win32/nxp_rt600_RI2019_newlib/xtensa-elf/arch/lib/crt1-boards.o
 .debug_abbrev  0x00000014      0x12a MIMXRT685S/system_MIMXRT685S_dsp.o
 .debug_abbrev  0x0000013e      0x139 board/pin_mux.o
 .debug_abbrev  0x00000277      0x1f7 component/lists/generic_list.o
 .debug_abbrev  0x0000046e      0x1b8 component/serial_manager/serial_manager.o
 .debug_abbrev  0x00000626      0x1af component/serial_manager/serial_port_uart.o
 .debug_abbrev  0x000007d5      0x1db component/uart/usart_adapter.o
 .debug_abbrev  0x000009b0      0x240 drivers/fsl_clock.o
 .debug_abbrev  0x00000bf0      0x1ab drivers/fsl_common.o
 .debug_abbrev  0x00000d9b      0x274 drivers/fsl_flexcomm.o
 .debug_abbrev  0x0000100f      0x221 drivers/fsl_gpio.o
 .debug_abbrev  0x00001230      0x161 drivers/fsl_reset.o
 .debug_abbrev  0x00001391      0x2b3 drivers/fsl_usart.o
 .debug_abbrev  0x00001644      0x2d3 drivers_audio/fsl_dma.o
 .debug_abbrev  0x00001917      0x263 drivers_audio/fsl_dmic.o
 .debug_abbrev  0x00001b7a      0x21b drivers_audio/fsl_dmic_dma.o
 .debug_abbrev  0x00001d95      0x26a drivers_audio/fsl_i2s.o
 .debug_abbrev  0x00001fff      0x267 drivers_audio/fsl_i2s_dma.o
 .debug_abbrev  0x00002266      0x1d2 drivers_audio/fsl_inputmux.o
 .debug_abbrev  0x00002438      0x101 evkmimxrt685/board_hifi4.o
 .debug_abbrev  0x00002539      0x270 user/main.o
 .debug_abbrev  0x000027a9      0x12b user/user_pin_mux.o
 .debug_abbrev  0x000028d4      0x1aa utilities/fsl_debug_console.o
 .debug_abbrev  0x00002a7e      0x1a5 utilities/fsl_str.o
 .debug_abbrev  0x00002c23      0x38a C:/usr/xtensa/XtDevTools/install/builds/RI-2019.1-win32/nxp_rt600_RI2019_newlib/xtensa-elf/arch/lib/\libxos.a(xos.o)
 .debug_abbrev  0x00002fad       0x14 C:/usr/xtensa/XtDevTools/install/builds/RI-2019.1-win32/nxp_rt600_RI2019_newlib/xtensa-elf/arch/lib/\libxos.a(xos_exc_handler.o)
 .debug_abbrev  0x00002fc1      0x217 C:/usr/xtensa/XtDevTools/install/builds/RI-2019.1-win32/nxp_rt600_RI2019_newlib/xtensa-elf/arch/lib/\libxos.a(xos_start_main.o)
 .debug_abbrev  0x000031d8      0x3c4 C:/usr/xtensa/XtDevTools/install/builds/RI-2019.1-win32/nxp_rt600_RI2019_newlib/xtensa-elf/arch/lib/\libxos.a(xos_thread.o)
 .debug_abbrev  0x0000359c      0x346 C:/usr/xtensa/XtDevTools/install/builds/RI-2019.1-win32/nxp_rt600_RI2019_newlib/xtensa-elf/arch/lib/\libxos.a(xos_timer.o)
 .debug_abbrev  0x000038e2       0x14 C:/usr/xtensa/XtDevTools/install/builds/RI-2019.1-win32/nxp_rt600_RI2019_newlib/xtensa-elf/arch/lib/\libxos.a(xos_handlers.o)
 .debug_abbrev  0x000038f6       0x12 C:/usr/xtensa/XtDevTools/install/builds/RI-2019.1-win32/nxp_rt600_RI2019_newlib/xtensa-elf/arch/lib/\libxos.a(xos_vectors.o)
 .debug_abbrev  0x00003908       0x14 C:/usr/xtensa/XtDevTools/install/builds/RI-2019.1-win32/nxp_rt600_RI2019_newlib/xtensa-elf/arch/lib/\libxos.a(xos_window_vectors.o)
 .debug_abbrev  0x0000391c      0x31e C:/usr/xtensa/XtDevTools/install/builds/RI-2019.1-win32/nxp_rt600_RI2019_newlib/xtensa-elf/arch/lib/\libxos.a(xos_clib.o)
 .debug_abbrev  0x00003c3a       0x14 C:/usr/xtensa/XtDevTools/install/builds/RI-2019.1-win32/nxp_rt600_RI2019_newlib/xtensa-elf/arch/lib/\libxos.a(xos_coproc_handler.o)
 .debug_abbrev  0x00003c4e      0x2de C:/usr/xtensa/XtDevTools/install/builds/RI-2019.1-win32/nxp_rt600_RI2019_newlib/xtensa-elf/arch/lib/\libxos.a(xos_mutex.o)
 .debug_abbrev  0x00003f2c      0x206 C:/usr/xtensa/XtDevTools/install/builds/RI-2019.1-win32/nxp_rt600_RI2019_newlib/xtensa-elf/arch/lib/\libxos.a(xos_once.o)
 .debug_abbrev  0x00004132      0x297 C:/usr/xtensa/XtDevTools/install/builds/RI-2019.1-win32/nxp_rt600_RI2019_newlib/xtensa-elf/arch/lib/\libxos.a(xos_system_timer.o)
 .debug_abbrev  0x000043c9       0xa2 C:/usr/xtensa/XtDevTools/install/builds/RI-2019.1-win32/nxp_rt600_RI2019_newlib/xtensa-elf/lib/xcc/\libgcc.a(_muldi3.o)
 .debug_abbrev  0x0000446b       0xa1 C:/usr/xtensa/XtDevTools/install/builds/RI-2019.1-win32/nxp_rt600_RI2019_newlib/xtensa-elf/lib/xcc/\libgcc.a(_udivdi3.o)
 .debug_abbrev  0x0000450c       0x7c C:/usr/xtensa/XtDevTools/install/builds/RI-2019.1-win32/nxp_rt600_RI2019_newlib/xtensa-elf/lib/\libc.a(clibrary_init.o)
 .debug_abbrev  0x00004588       0xfd C:/usr/xtensa/XtDevTools/install/builds/RI-2019.1-win32/nxp_rt600_RI2019_newlib/xtensa-elf/lib/\libc.a(lib_a-assert.o)
 .debug_abbrev  0x00004685       0x5a C:/usr/xtensa/XtDevTools/install/builds/RI-2019.1-win32/nxp_rt600_RI2019_newlib/xtensa-elf/lib/\libc.a(lib_a-environ.o)
 .debug_abbrev  0x000046df       0xde C:/usr/xtensa/XtDevTools/install/builds/RI-2019.1-win32/nxp_rt600_RI2019_newlib/xtensa-elf/lib/\libc.a(lib_a-exit.o)
 .debug_abbrev  0x000047bd      0x126 C:/usr/xtensa/XtDevTools/install/builds/RI-2019.1-win32/nxp_rt600_RI2019_newlib/xtensa-elf/lib/\libc.a(lib_a-fiprintf.o)
 .debug_abbrev  0x000048e3       0xd1 C:/usr/xtensa/XtDevTools/install/builds/RI-2019.1-win32/nxp_rt600_RI2019_newlib/xtensa-elf/lib/\libc.a(lib_a-impure.o)
 .debug_abbrev  0x000049b4       0xff C:/usr/xtensa/XtDevTools/install/builds/RI-2019.1-win32/nxp_rt600_RI2019_newlib/xtensa-elf/lib/\libc.a(lib_a-malloc.o)
 .debug_abbrev  0x00004ab3      0x108 C:/usr/xtensa/XtDevTools/install/builds/RI-2019.1-win32/nxp_rt600_RI2019_newlib/xtensa-elf/lib/\libc.a(lib_a-mallocr.o)
 .debug_abbrev  0x00004bbb       0x14 C:/usr/xtensa/XtDevTools/install/builds/RI-2019.1-win32/nxp_rt600_RI2019_newlib/xtensa-elf/lib/\libc.a(lib_a-memcpy.o)
 .debug_abbrev  0x00004bcf       0x14 C:/usr/xtensa/XtDevTools/install/builds/RI-2019.1-win32/nxp_rt600_RI2019_newlib/xtensa-elf/lib/\libc.a(lib_a-memset.o)
 .debug_abbrev  0x00004be3      0x10a C:/usr/xtensa/XtDevTools/install/builds/RI-2019.1-win32/nxp_rt600_RI2019_newlib/xtensa-elf/lib/\libc.a(lib_a-reent.o)
 .debug_abbrev  0x00004ced       0x14 C:/usr/xtensa/XtDevTools/install/builds/RI-2019.1-win32/nxp_rt600_RI2019_newlib/xtensa-elf/lib/\libc.a(lib_a-strlen.o)
 .debug_abbrev  0x00004d01      0x10e C:/usr/xtensa/XtDevTools/install/builds/RI-2019.1-win32/nxp_rt600_RI2019_newlib/xtensa-elf/lib/\libc.a(lib_a-strtoul.o)
 .debug_abbrev  0x00004e0f      0x16d C:/usr/xtensa/XtDevTools/install/builds/RI-2019.1-win32/nxp_rt600_RI2019_newlib/xtensa-elf/lib/\libc.a(lib_a-vfiprintf.o)
 .debug_abbrev  0x00004f7c       0xe0 C:/usr/xtensa/XtDevTools/install/builds/RI-2019.1-win32/nxp_rt600_RI2019_newlib/xtensa-elf/lib/\libc.a(lib_a-wsetup.o)
 .debug_abbrev  0x0000505c       0xed C:/usr/xtensa/XtDevTools/install/builds/RI-2019.1-win32/nxp_rt600_RI2019_newlib/xtensa-elf/lib/\libc.a(_atexit.o)
 .debug_abbrev  0x00005149       0xeb C:/usr/xtensa/XtDevTools/install/builds/RI-2019.1-win32/nxp_rt600_RI2019_newlib/xtensa-elf/lib/\libc.a(lib_a-__call_atexit.o)
 .debug_abbrev  0x00005234       0x4a C:/usr/xtensa/XtDevTools/install/builds/RI-2019.1-win32/nxp_rt600_RI2019_newlib/xtensa-elf/lib/\libc.a(lib_a-abort.o)
 .debug_abbrev  0x0000527e       0x54 C:/usr/xtensa/XtDevTools/install/builds/RI-2019.1-win32/nxp_rt600_RI2019_newlib/xtensa-elf/lib/\libc.a(lib_a-ctype_.o)
 .debug_abbrev  0x000052d2      0x10e C:/usr/xtensa/XtDevTools/install/builds/RI-2019.1-win32/nxp_rt600_RI2019_newlib/xtensa-elf/lib/\libc.a(lib_a-fflush.o)
 .debug_abbrev  0x000053e0      0x198 C:/usr/xtensa/XtDevTools/install/builds/RI-2019.1-win32/nxp_rt600_RI2019_newlib/xtensa-elf/lib/\libc.a(lib_a-findfp.o)
 .debug_abbrev  0x00005578      0x111 C:/usr/xtensa/XtDevTools/install/builds/RI-2019.1-win32/nxp_rt600_RI2019_newlib/xtensa-elf/lib/\libc.a(lib_a-fputwc.o)
 .debug_abbrev  0x00005689      0x113 C:/usr/xtensa/XtDevTools/install/builds/RI-2019.1-win32/nxp_rt600_RI2019_newlib/xtensa-elf/lib/\libc.a(lib_a-freer.o)
 .debug_abbrev  0x0000579c       0xf2 C:/usr/xtensa/XtDevTools/install/builds/RI-2019.1-win32/nxp_rt600_RI2019_newlib/xtensa-elf/lib/\libc.a(lib_a-fvwrite.o)
 .debug_abbrev  0x0000588e      0x10e C:/usr/xtensa/XtDevTools/install/builds/RI-2019.1-win32/nxp_rt600_RI2019_newlib/xtensa-elf/lib/\libc.a(lib_a-fwalk.o)
 .debug_abbrev  0x0000599c      0x130 C:/usr/xtensa/XtDevTools/install/builds/RI-2019.1-win32/nxp_rt600_RI2019_newlib/xtensa-elf/lib/\libc.a(lib_a-locale.o)
 .debug_abbrev  0x00005acc       0xfa C:/usr/xtensa/XtDevTools/install/builds/RI-2019.1-win32/nxp_rt600_RI2019_newlib/xtensa-elf/lib/\libc.a(lib_a-makebuf.o)
 .debug_abbrev  0x00005bc6       0x95 C:/usr/xtensa/XtDevTools/install/builds/RI-2019.1-win32/nxp_rt600_RI2019_newlib/xtensa-elf/lib/\libc.a(lib_a-memchr.o)
 .debug_abbrev  0x00005c5b       0x8e C:/usr/xtensa/XtDevTools/install/builds/RI-2019.1-win32/nxp_rt600_RI2019_newlib/xtensa-elf/lib/\libc.a(lib_a-memmove.o)
 .debug_abbrev  0x00005ce9       0xf9 C:/usr/xtensa/XtDevTools/install/builds/RI-2019.1-win32/nxp_rt600_RI2019_newlib/xtensa-elf/lib/\libc.a(lib_a-reallocr.o)
 .debug_abbrev  0x00005de2      0x12d C:/usr/xtensa/XtDevTools/install/builds/RI-2019.1-win32/nxp_rt600_RI2019_newlib/xtensa-elf/lib/\libc.a(lib_a-signal.o)
 .debug_abbrev  0x00005f0f      0x113 C:/usr/xtensa/XtDevTools/install/builds/RI-2019.1-win32/nxp_rt600_RI2019_newlib/xtensa-elf/lib/\libc.a(lib_a-stdio.o)
 .debug_abbrev  0x00006022       0x14 C:/usr/xtensa/XtDevTools/install/builds/RI-2019.1-win32/nxp_rt600_RI2019_newlib/xtensa-elf/lib/\libc.a(lib_a-strcmp.o)
 .debug_abbrev  0x00006036      0x10e C:/usr/xtensa/XtDevTools/install/builds/RI-2019.1-win32/nxp_rt600_RI2019_newlib/xtensa-elf/lib/\libc.a(lib_a-wbuf.o)
 .debug_abbrev  0x00006144      0x11d C:/usr/xtensa/XtDevTools/install/builds/RI-2019.1-win32/nxp_rt600_RI2019_newlib/xtensa-elf/lib/\libc.a(lib_a-wcrtomb.o)
 .debug_abbrev  0x00006261      0x11f C:/usr/xtensa/XtDevTools/install/builds/RI-2019.1-win32/nxp_rt600_RI2019_newlib/xtensa-elf/lib/\libc.a(lib_a-wctomb_r.o)
 .debug_abbrev  0x00006380       0xef C:/usr/xtensa/XtDevTools/install/builds/RI-2019.1-win32/nxp_rt600_RI2019_newlib/xtensa-elf/lib/\libc.a(isatty.o)
 .debug_abbrev  0x0000646f      0x10e C:/usr/xtensa/XtDevTools/install/builds/RI-2019.1-win32/nxp_rt600_RI2019_newlib/xtensa-elf/lib/\libc.a(lib_a-fclose.o)
 .debug_abbrev  0x0000657d      0x103 C:/usr/xtensa/XtDevTools/install/builds/RI-2019.1-win32/nxp_rt600_RI2019_newlib/xtensa-elf/lib/\libgdbio.a(close.o)
 .debug_abbrev  0x00006680       0xfc C:/usr/xtensa/XtDevTools/install/builds/RI-2019.1-win32/nxp_rt600_RI2019_newlib/xtensa-elf/lib/\libgdbio.a(fstat.o)
 .debug_abbrev  0x0000677c       0xe0 C:/usr/xtensa/XtDevTools/install/builds/RI-2019.1-win32/nxp_rt600_RI2019_newlib/xtensa-elf/lib/\libgdbio.a(kill.o)
 .debug_abbrev  0x0000685c       0x14 C:/usr/xtensa/XtDevTools/install/builds/RI-2019.1-win32/nxp_rt600_RI2019_newlib/xtensa-elf/lib/\libgdbio.a(libinit.o)
 .debug_abbrev  0x00006870       0xed C:/usr/xtensa/XtDevTools/install/builds/RI-2019.1-win32/nxp_rt600_RI2019_newlib/xtensa-elf/lib/\libgdbio.a(lseek.o)
 .debug_abbrev  0x0000695d      0x103 C:/usr/xtensa/XtDevTools/install/builds/RI-2019.1-win32/nxp_rt600_RI2019_newlib/xtensa-elf/lib/\libgdbio.a(read.o)
 .debug_abbrev  0x00006a60      0x15d C:/usr/xtensa/XtDevTools/install/builds/RI-2019.1-win32/nxp_rt600_RI2019_newlib/xtensa-elf/lib/\libgdbio.a(semihosting.o)
 .debug_abbrev  0x00006bbd       0x14 C:/usr/xtensa/XtDevTools/install/builds/RI-2019.1-win32/nxp_rt600_RI2019_newlib/xtensa-elf/lib/\libgdbio.a(syscall.o)
 .debug_abbrev  0x00006bd1      0x108 C:/usr/xtensa/XtDevTools/install/builds/RI-2019.1-win32/nxp_rt600_RI2019_newlib/xtensa-elf/lib/\libgdbio.a(write.o)
 .debug_abbrev  0x00006cd9       0xe0 C:/usr/xtensa/XtDevTools/install/builds/RI-2019.1-win32/nxp_rt600_RI2019_newlib/xtensa-elf/lib/\libgdbio.a(getpid.o)
 .debug_abbrev  0x00006db9       0x36 C:/usr/xtensa/XtDevTools/install/builds/RI-2019.1-win32/nxp_rt600_RI2019_newlib/xtensa-elf/lib/\libgdbio.a(miniboard.o)
 .debug_abbrev  0x00006def       0x14 C:/usr/xtensa/XtDevTools/install/builds/RI-2019.1-win32/nxp_rt600_RI2019_newlib/xtensa-elf/arch/lib/\libhandler-reset.a(reset-vector.o)
 .debug_abbrev  0x00006e03       0x14 C:/usr/xtensa/XtDevTools/install/builds/RI-2019.1-win32/nxp_rt600_RI2019_newlib/xtensa-elf/arch/lib/\libhandlers-board.a(exit.o)
 .debug_abbrev  0x00006e17       0x14 C:/usr/xtensa/XtDevTools/install/builds/RI-2019.1-win32/nxp_rt600_RI2019_newlib/xtensa-elf/arch/lib/\libhal.a(windowspill_asm.o)
 .debug_abbrev  0x00006e2b       0x14 C:/usr/xtensa/XtDevTools/install/builds/RI-2019.1-win32/nxp_rt600_RI2019_newlib/xtensa-elf/arch/lib/\libhal.a(cache_asm--dcache_all_writeback.o)
 .debug_abbrev  0x00006e3f       0xb2 C:/usr/xtensa/XtDevTools/install/builds/RI-2019.1-win32/nxp_rt600_RI2019_newlib/xtensa-elf/arch/lib/\libhal.a(const--intlevel.o)
 .debug_abbrev  0x00006ef1       0xb2 C:/usr/xtensa/XtDevTools/install/builds/RI-2019.1-win32/nxp_rt600_RI2019_newlib/xtensa-elf/arch/lib/\libhal.a(const--intlevel_mask.o)
 .debug_abbrev  0x00006fa3       0xb2 C:/usr/xtensa/XtDevTools/install/builds/RI-2019.1-win32/nxp_rt600_RI2019_newlib/xtensa-elf/arch/lib/\libhal.a(const--timer_interrupt.o)
 .debug_abbrev  0x00007055      0x140 C:/usr/xtensa/XtDevTools/install/builds/RI-2019.1-win32/nxp_rt600_RI2019_newlib/xtensa-elf/arch/lib/\libhal.a(attribute.o)
 .debug_abbrev  0x00007195       0x14 C:/usr/xtensa/XtDevTools/install/builds/RI-2019.1-win32/nxp_rt600_RI2019_newlib/xtensa-elf/arch/lib/\libhal.a(clock.o)
 .debug_abbrev  0x000071a9       0x14 C:/usr/xtensa/XtDevTools/install/builds/RI-2019.1-win32/nxp_rt600_RI2019_newlib/xtensa-elf/arch/lib/\libhal.a(cache_attr--get_cacheattr.o)
 .debug_abbrev  0x000071bd       0x14 C:/usr/xtensa/XtDevTools/install/builds/RI-2019.1-win32/nxp_rt600_RI2019_newlib/xtensa-elf/arch/lib/\libhal.a(cache_attr--set_cacheattr.o)
 .debug_abbrev  0x000071d1       0x14 C:/usr/xtensa/XtDevTools/install/builds/RI-2019.1-win32/nxp_rt600_RI2019_newlib/xtensa-elf/arch/lib/\libhal.a(cache_asm--dcache_all_writeback_inv.o)
 .debug_abbrev  0x000071e5       0x14 C:/usr/xtensa/XtDevTools/install/builds/RI-2019.1-win32/nxp_rt600_RI2019_newlib/xtensa-elf/arch/lib/\libhal.a(cache_asm--icache_all_invalidate.o)
 .debug_abbrev  0x000071f9       0xae C:/usr/xtensa/XtDevTools/install/builds/RI-2019.1-win32/nxp_rt600_RI2019_newlib/xtensa-elf/lib/xcc/\libgcc.a(_umoddi3.o)

.debug_line     0x00000000    0x11e7b
 *(.debug_line)
 .debug_line    0x00000000      0x1ce C:/usr/xtensa/XtDevTools/install/builds/RI-2019.1-win32/nxp_rt600_RI2019_newlib/xtensa-elf/arch/lib/crt1-boards.o
 .debug_line    0x000001ce      0x20c MIMXRT685S/system_MIMXRT685S_dsp.o
 .debug_line    0x000003da      0x1ef board/pin_mux.o
 .debug_line    0x000005c9      0x413 component/lists/generic_list.o
 .debug_line    0x000009dc      0x468 component/serial_manager/serial_manager.o
 .debug_line    0x00000e44      0x27a component/serial_manager/serial_port_uart.o
 .debug_line    0x000010be      0x2af component/uart/usart_adapter.o
 .debug_line    0x0000136d      0xc98 drivers/fsl_clock.o
 .debug_line    0x00002005      0x171 drivers/fsl_common.o
 .debug_line    0x00002176      0x2ec drivers/fsl_flexcomm.o
 .debug_line    0x00002462      0x27c drivers/fsl_gpio.o
 .debug_line    0x000026de      0x1f9 drivers/fsl_reset.o
 .debug_line    0x000028d7      0x924 drivers/fsl_usart.o
 .debug_line    0x000031fb      0xa03 drivers_audio/fsl_dma.o
 .debug_line    0x00003bfe      0x4f0 drivers_audio/fsl_dmic.o
 .debug_line    0x000040ee      0x3b7 drivers_audio/fsl_dmic_dma.o
 .debug_line    0x000044a5      0xcf6 drivers_audio/fsl_i2s.o
 .debug_line    0x0000519b      0x7c6 drivers_audio/fsl_i2s_dma.o
 .debug_line    0x00005961      0x2ef drivers_audio/fsl_inputmux.o
 .debug_line    0x00005c50      0x1ba evkmimxrt685/board_hifi4.o
 .debug_line    0x00005e0a      0x771 user/main.o
 .debug_line    0x0000657b      0x295 user/user_pin_mux.o
 .debug_line    0x00006810      0x45f utilities/fsl_debug_console.o
 .debug_line    0x00006c6f      0x94a utilities/fsl_str.o
 .debug_line    0x000075b9      0x46e C:/usr/xtensa/XtDevTools/install/builds/RI-2019.1-win32/nxp_rt600_RI2019_newlib/xtensa-elf/arch/lib/\libxos.a(xos.o)
 .debug_line    0x00007a27      0x320 C:/usr/xtensa/XtDevTools/install/builds/RI-2019.1-win32/nxp_rt600_RI2019_newlib/xtensa-elf/arch/lib/\libxos.a(xos_exc_handler.o)
 .debug_line    0x00007d47      0x2a5 C:/usr/xtensa/XtDevTools/install/builds/RI-2019.1-win32/nxp_rt600_RI2019_newlib/xtensa-elf/arch/lib/\libxos.a(xos_start_main.o)
 .debug_line    0x00007fec     0x13f0 C:/usr/xtensa/XtDevTools/install/builds/RI-2019.1-win32/nxp_rt600_RI2019_newlib/xtensa-elf/arch/lib/\libxos.a(xos_thread.o)
 .debug_line    0x000093dc      0x975 C:/usr/xtensa/XtDevTools/install/builds/RI-2019.1-win32/nxp_rt600_RI2019_newlib/xtensa-elf/arch/lib/\libxos.a(xos_timer.o)
 .debug_line    0x00009d51      0x90c C:/usr/xtensa/XtDevTools/install/builds/RI-2019.1-win32/nxp_rt600_RI2019_newlib/xtensa-elf/arch/lib/\libxos.a(xos_handlers.o)
 .debug_line    0x0000a65d      0x1a0 C:/usr/xtensa/XtDevTools/install/builds/RI-2019.1-win32/nxp_rt600_RI2019_newlib/xtensa-elf/arch/lib/\libxos.a(xos_vectors.o)
 .debug_line    0x0000a7fd      0x245 C:/usr/xtensa/XtDevTools/install/builds/RI-2019.1-win32/nxp_rt600_RI2019_newlib/xtensa-elf/arch/lib/\libxos.a(xos_window_vectors.o)
 .debug_line    0x0000aa42      0x32d C:/usr/xtensa/XtDevTools/install/builds/RI-2019.1-win32/nxp_rt600_RI2019_newlib/xtensa-elf/arch/lib/\libxos.a(xos_clib.o)
 .debug_line    0x0000ad6f      0x29f C:/usr/xtensa/XtDevTools/install/builds/RI-2019.1-win32/nxp_rt600_RI2019_newlib/xtensa-elf/arch/lib/\libxos.a(xos_coproc_handler.o)
 .debug_line    0x0000b00e      0x535 C:/usr/xtensa/XtDevTools/install/builds/RI-2019.1-win32/nxp_rt600_RI2019_newlib/xtensa-elf/arch/lib/\libxos.a(xos_mutex.o)
 .debug_line    0x0000b543      0x1c8 C:/usr/xtensa/XtDevTools/install/builds/RI-2019.1-win32/nxp_rt600_RI2019_newlib/xtensa-elf/arch/lib/\libxos.a(xos_once.o)
 .debug_line    0x0000b70b      0x3c3 C:/usr/xtensa/XtDevTools/install/builds/RI-2019.1-win32/nxp_rt600_RI2019_newlib/xtensa-elf/arch/lib/\libxos.a(xos_system_timer.o)
 .debug_line    0x0000bace       0xbd C:/usr/xtensa/XtDevTools/install/builds/RI-2019.1-win32/nxp_rt600_RI2019_newlib/xtensa-elf/lib/xcc/\libgcc.a(_muldi3.o)
 .debug_line    0x0000bb8b      0x191 C:/usr/xtensa/XtDevTools/install/builds/RI-2019.1-win32/nxp_rt600_RI2019_newlib/xtensa-elf/lib/xcc/\libgcc.a(_udivdi3.o)
 .debug_line    0x0000bd1c       0xde C:/usr/xtensa/XtDevTools/install/builds/RI-2019.1-win32/nxp_rt600_RI2019_newlib/xtensa-elf/lib/\libc.a(clibrary_init.o)
 .debug_line    0x0000bdfa       0xc6 C:/usr/xtensa/XtDevTools/install/builds/RI-2019.1-win32/nxp_rt600_RI2019_newlib/xtensa-elf/lib/\libc.a(lib_a-assert.o)
 .debug_line    0x0000bec0       0x88 C:/usr/xtensa/XtDevTools/install/builds/RI-2019.1-win32/nxp_rt600_RI2019_newlib/xtensa-elf/lib/\libc.a(lib_a-environ.o)
 .debug_line    0x0000bf48       0xb3 C:/usr/xtensa/XtDevTools/install/builds/RI-2019.1-win32/nxp_rt600_RI2019_newlib/xtensa-elf/lib/\libc.a(lib_a-exit.o)
 .debug_line    0x0000bffb       0xea C:/usr/xtensa/XtDevTools/install/builds/RI-2019.1-win32/nxp_rt600_RI2019_newlib/xtensa-elf/lib/\libc.a(lib_a-fiprintf.o)
 .debug_line    0x0000c0e5       0x86 C:/usr/xtensa/XtDevTools/install/builds/RI-2019.1-win32/nxp_rt600_RI2019_newlib/xtensa-elf/lib/\libc.a(lib_a-impure.o)
 .debug_line    0x0000c16b       0xd3 C:/usr/xtensa/XtDevTools/install/builds/RI-2019.1-win32/nxp_rt600_RI2019_newlib/xtensa-elf/lib/\libc.a(lib_a-malloc.o)
 .debug_line    0x0000c23e      0x43d C:/usr/xtensa/XtDevTools/install/builds/RI-2019.1-win32/nxp_rt600_RI2019_newlib/xtensa-elf/lib/\libc.a(lib_a-mallocr.o)
 .debug_line    0x0000c67b      0x286 C:/usr/xtensa/XtDevTools/install/builds/RI-2019.1-win32/nxp_rt600_RI2019_newlib/xtensa-elf/lib/\libc.a(lib_a-memcpy.o)
 .debug_line    0x0000c901      0x16c C:/usr/xtensa/XtDevTools/install/builds/RI-2019.1-win32/nxp_rt600_RI2019_newlib/xtensa-elf/lib/\libc.a(lib_a-memset.o)
 .debug_line    0x0000ca6d      0x1a0 C:/usr/xtensa/XtDevTools/install/builds/RI-2019.1-win32/nxp_rt600_RI2019_newlib/xtensa-elf/lib/\libc.a(lib_a-reent.o)
 .debug_line    0x0000cc0d      0x16b C:/usr/xtensa/XtDevTools/install/builds/RI-2019.1-win32/nxp_rt600_RI2019_newlib/xtensa-elf/lib/\libc.a(lib_a-strlen.o)
 .debug_line    0x0000cd78      0x236 C:/usr/xtensa/XtDevTools/install/builds/RI-2019.1-win32/nxp_rt600_RI2019_newlib/xtensa-elf/lib/\libc.a(lib_a-strtoul.o)
 .debug_line    0x0000cfae      0xada C:/usr/xtensa/XtDevTools/install/builds/RI-2019.1-win32/nxp_rt600_RI2019_newlib/xtensa-elf/lib/\libc.a(lib_a-vfiprintf.o)
 .debug_line    0x0000da88      0x162 C:/usr/xtensa/XtDevTools/install/builds/RI-2019.1-win32/nxp_rt600_RI2019_newlib/xtensa-elf/lib/\libc.a(lib_a-wsetup.o)
 .debug_line    0x0000dbea       0xd2 C:/usr/xtensa/XtDevTools/install/builds/RI-2019.1-win32/nxp_rt600_RI2019_newlib/xtensa-elf/lib/\libc.a(_atexit.o)
 .debug_line    0x0000dcbc      0x143 C:/usr/xtensa/XtDevTools/install/builds/RI-2019.1-win32/nxp_rt600_RI2019_newlib/xtensa-elf/lib/\libc.a(lib_a-__call_atexit.o)
 .debug_line    0x0000ddff       0xa8 C:/usr/xtensa/XtDevTools/install/builds/RI-2019.1-win32/nxp_rt600_RI2019_newlib/xtensa-elf/lib/\libc.a(lib_a-abort.o)
 .debug_line    0x0000dea7       0x86 C:/usr/xtensa/XtDevTools/install/builds/RI-2019.1-win32/nxp_rt600_RI2019_newlib/xtensa-elf/lib/\libc.a(lib_a-ctype_.o)
 .debug_line    0x0000df2d      0x267 C:/usr/xtensa/XtDevTools/install/builds/RI-2019.1-win32/nxp_rt600_RI2019_newlib/xtensa-elf/lib/\libc.a(lib_a-fflush.o)
 .debug_line    0x0000e194      0x435 C:/usr/xtensa/XtDevTools/install/builds/RI-2019.1-win32/nxp_rt600_RI2019_newlib/xtensa-elf/lib/\libc.a(lib_a-findfp.o)
 .debug_line    0x0000e5c9      0x126 C:/usr/xtensa/XtDevTools/install/builds/RI-2019.1-win32/nxp_rt600_RI2019_newlib/xtensa-elf/lib/\libc.a(lib_a-fputwc.o)
 .debug_line    0x0000e6ef      0x2cc C:/usr/xtensa/XtDevTools/install/builds/RI-2019.1-win32/nxp_rt600_RI2019_newlib/xtensa-elf/lib/\libc.a(lib_a-freer.o)
 .debug_line    0x0000e9bb      0x2ec C:/usr/xtensa/XtDevTools/install/builds/RI-2019.1-win32/nxp_rt600_RI2019_newlib/xtensa-elf/lib/\libc.a(lib_a-fvwrite.o)
 .debug_line    0x0000eca7      0x129 C:/usr/xtensa/XtDevTools/install/builds/RI-2019.1-win32/nxp_rt600_RI2019_newlib/xtensa-elf/lib/\libc.a(lib_a-fwalk.o)
 .debug_line    0x0000edd0      0x1ab C:/usr/xtensa/XtDevTools/install/builds/RI-2019.1-win32/nxp_rt600_RI2019_newlib/xtensa-elf/lib/\libc.a(lib_a-locale.o)
 .debug_line    0x0000ef7b      0x16f C:/usr/xtensa/XtDevTools/install/builds/RI-2019.1-win32/nxp_rt600_RI2019_newlib/xtensa-elf/lib/\libc.a(lib_a-makebuf.o)
 .debug_line    0x0000f0ea      0x16b C:/usr/xtensa/XtDevTools/install/builds/RI-2019.1-win32/nxp_rt600_RI2019_newlib/xtensa-elf/lib/\libc.a(lib_a-memchr.o)
 .debug_line    0x0000f255      0x110 C:/usr/xtensa/XtDevTools/install/builds/RI-2019.1-win32/nxp_rt600_RI2019_newlib/xtensa-elf/lib/\libc.a(lib_a-memmove.o)
 .debug_line    0x0000f365      0x2e0 C:/usr/xtensa/XtDevTools/install/builds/RI-2019.1-win32/nxp_rt600_RI2019_newlib/xtensa-elf/lib/\libc.a(lib_a-reallocr.o)
 .debug_line    0x0000f645      0x2d7 C:/usr/xtensa/XtDevTools/install/builds/RI-2019.1-win32/nxp_rt600_RI2019_newlib/xtensa-elf/lib/\libc.a(lib_a-signal.o)
 .debug_line    0x0000f91c      0x175 C:/usr/xtensa/XtDevTools/install/builds/RI-2019.1-win32/nxp_rt600_RI2019_newlib/xtensa-elf/lib/\libc.a(lib_a-stdio.o)
 .debug_line    0x0000fa91      0x28c C:/usr/xtensa/XtDevTools/install/builds/RI-2019.1-win32/nxp_rt600_RI2019_newlib/xtensa-elf/lib/\libc.a(lib_a-strcmp.o)
 .debug_line    0x0000fd1d      0x15f C:/usr/xtensa/XtDevTools/install/builds/RI-2019.1-win32/nxp_rt600_RI2019_newlib/xtensa-elf/lib/\libc.a(lib_a-wbuf.o)
 .debug_line    0x0000fe7c      0x132 C:/usr/xtensa/XtDevTools/install/builds/RI-2019.1-win32/nxp_rt600_RI2019_newlib/xtensa-elf/lib/\libc.a(lib_a-wcrtomb.o)
 .debug_line    0x0000ffae       0xdf C:/usr/xtensa/XtDevTools/install/builds/RI-2019.1-win32/nxp_rt600_RI2019_newlib/xtensa-elf/lib/\libc.a(lib_a-wctomb_r.o)
 .debug_line    0x0001008d       0xbf C:/usr/xtensa/XtDevTools/install/builds/RI-2019.1-win32/nxp_rt600_RI2019_newlib/xtensa-elf/lib/\libc.a(isatty.o)
 .debug_line    0x0001014c      0x14a C:/usr/xtensa/XtDevTools/install/builds/RI-2019.1-win32/nxp_rt600_RI2019_newlib/xtensa-elf/lib/\libc.a(lib_a-fclose.o)
 .debug_line    0x00010296      0x103 C:/usr/xtensa/XtDevTools/install/builds/RI-2019.1-win32/nxp_rt600_RI2019_newlib/xtensa-elf/lib/\libgdbio.a(close.o)
 .debug_line    0x00010399      0x18d C:/usr/xtensa/XtDevTools/install/builds/RI-2019.1-win32/nxp_rt600_RI2019_newlib/xtensa-elf/lib/\libgdbio.a(fstat.o)
 .debug_line    0x00010526       0xae C:/usr/xtensa/XtDevTools/install/builds/RI-2019.1-win32/nxp_rt600_RI2019_newlib/xtensa-elf/lib/\libgdbio.a(kill.o)
 .debug_line    0x000105d4      0x105 C:/usr/xtensa/XtDevTools/install/builds/RI-2019.1-win32/nxp_rt600_RI2019_newlib/xtensa-elf/lib/\libgdbio.a(libinit.o)
 .debug_line    0x000106d9       0xf7 C:/usr/xtensa/XtDevTools/install/builds/RI-2019.1-win32/nxp_rt600_RI2019_newlib/xtensa-elf/lib/\libgdbio.a(lseek.o)
 .debug_line    0x000107d0       0xf6 C:/usr/xtensa/XtDevTools/install/builds/RI-2019.1-win32/nxp_rt600_RI2019_newlib/xtensa-elf/lib/\libgdbio.a(read.o)
 .debug_line    0x000108c6      0x33a C:/usr/xtensa/XtDevTools/install/builds/RI-2019.1-win32/nxp_rt600_RI2019_newlib/xtensa-elf/lib/\libgdbio.a(semihosting.o)
 .debug_line    0x00010c00       0x93 C:/usr/xtensa/XtDevTools/install/builds/RI-2019.1-win32/nxp_rt600_RI2019_newlib/xtensa-elf/lib/\libgdbio.a(syscall.o)
 .debug_line    0x00010c93       0xf7 C:/usr/xtensa/XtDevTools/install/builds/RI-2019.1-win32/nxp_rt600_RI2019_newlib/xtensa-elf/lib/\libgdbio.a(write.o)
 .debug_line    0x00010d8a       0x98 C:/usr/xtensa/XtDevTools/install/builds/RI-2019.1-win32/nxp_rt600_RI2019_newlib/xtensa-elf/lib/\libgdbio.a(getpid.o)
 .debug_line    0x00010e22       0x95 C:/usr/xtensa/XtDevTools/install/builds/RI-2019.1-win32/nxp_rt600_RI2019_newlib/xtensa-elf/lib/\libgdbio.a(miniboard.o)
 .debug_line    0x00010eb7      0x14d C:/usr/xtensa/XtDevTools/install/builds/RI-2019.1-win32/nxp_rt600_RI2019_newlib/xtensa-elf/arch/lib/\libhandler-reset.a(reset-vector.o)
 .debug_line    0x00011004       0xbf C:/usr/xtensa/XtDevTools/install/builds/RI-2019.1-win32/nxp_rt600_RI2019_newlib/xtensa-elf/arch/lib/\libhandlers-board.a(exit.o)
 .debug_line    0x000110c3      0x2fe C:/usr/xtensa/XtDevTools/install/builds/RI-2019.1-win32/nxp_rt600_RI2019_newlib/xtensa-elf/arch/lib/\libhal.a(windowspill_asm.o)
 .debug_line    0x000113c1       0x94 C:/usr/xtensa/XtDevTools/install/builds/RI-2019.1-win32/nxp_rt600_RI2019_newlib/xtensa-elf/arch/lib/\libhal.a(cache_asm--dcache_all_writeback.o)
 .debug_line    0x00011455       0xde C:/usr/xtensa/XtDevTools/install/builds/RI-2019.1-win32/nxp_rt600_RI2019_newlib/xtensa-elf/arch/lib/\libhal.a(const--intlevel.o)
 .debug_line    0x00011533       0xde C:/usr/xtensa/XtDevTools/install/builds/RI-2019.1-win32/nxp_rt600_RI2019_newlib/xtensa-elf/arch/lib/\libhal.a(const--intlevel_mask.o)
 .debug_line    0x00011611       0xde C:/usr/xtensa/XtDevTools/install/builds/RI-2019.1-win32/nxp_rt600_RI2019_newlib/xtensa-elf/arch/lib/\libhal.a(const--timer_interrupt.o)
 .debug_line    0x000116ef      0x23b C:/usr/xtensa/XtDevTools/install/builds/RI-2019.1-win32/nxp_rt600_RI2019_newlib/xtensa-elf/arch/lib/\libhal.a(attribute.o)
 .debug_line    0x0001192a      0x10f C:/usr/xtensa/XtDevTools/install/builds/RI-2019.1-win32/nxp_rt600_RI2019_newlib/xtensa-elf/arch/lib/\libhal.a(clock.o)
 .debug_line    0x00011a39       0xa2 C:/usr/xtensa/XtDevTools/install/builds/RI-2019.1-win32/nxp_rt600_RI2019_newlib/xtensa-elf/arch/lib/\libhal.a(cache_attr--get_cacheattr.o)
 .debug_line    0x00011adb       0xa3 C:/usr/xtensa/XtDevTools/install/builds/RI-2019.1-win32/nxp_rt600_RI2019_newlib/xtensa-elf/arch/lib/\libhal.a(cache_attr--set_cacheattr.o)
 .debug_line    0x00011b7e       0x94 C:/usr/xtensa/XtDevTools/install/builds/RI-2019.1-win32/nxp_rt600_RI2019_newlib/xtensa-elf/arch/lib/\libhal.a(cache_asm--dcache_all_writeback_inv.o)
 .debug_line    0x00011c12       0x93 C:/usr/xtensa/XtDevTools/install/builds/RI-2019.1-win32/nxp_rt600_RI2019_newlib/xtensa-elf/arch/lib/\libhal.a(cache_asm--icache_all_invalidate.o)
 .debug_line    0x00011ca5      0x1d6 C:/usr/xtensa/XtDevTools/install/builds/RI-2019.1-win32/nxp_rt600_RI2019_newlib/xtensa-elf/lib/xcc/\libgcc.a(_umoddi3.o)

.debug_frame
 *(.debug_frame)

.debug_str
 *(.debug_str)

.debug_loc
 *(.debug_loc)

.debug_macinfo
 *(.debug_macinfo)

.debug_weaknames
 *(.debug_weaknames)

.debug_funcnames
 *(.debug_funcnames)

.debug_typenames
 *(.debug_typenames)

.debug_varnames
 *(.debug_varnames)

.xt.insn
 *(.xt.insn)
 *(.gnu.linkonce.x.*)

.xt.prop        0x00000000    0x11574
 *(.xt.prop)
 .xt.prop       0x00000000       0x84 C:/usr/xtensa/XtDevTools/install/builds/RI-2019.1-win32/nxp_rt600_RI2019_newlib/xtensa-elf/arch/lib/crt1-boards.o
 .xt.prop       0x00000084       0x18 C:/usr/xtensa/XtDevTools/install/builds/RI-2019.1-win32/nxp_rt600_RI2019_newlib/xtensa-elf/lib/xcc/crti.o
 .xt.prop       0x0000009c       0xc0 C:/usr/xtensa/XtDevTools/install/builds/RI-2019.1-win32/nxp_rt600_RI2019_newlib/xtensa-elf/lib/xcc/crtbegin.o
                                         0xf0 (size before relaxing)
 .xt.prop       0x0000015c      0x2dc MIMXRT685S/system_MIMXRT685S_dsp.o
                                        0x2e8 (size before relaxing)
 .xt.prop       0x00000438       0x54 board/pin_mux.o
 .xt.prop       0x0000048c      0x30c component/lists/generic_list.o
 .xt.prop       0x00000798      0x7bc component/serial_manager/serial_manager.o
 .xt.prop       0x00000f54      0x354 component/serial_manager/serial_port_uart.o
                                        0x36c (size before relaxing)
 .xt.prop       0x000012a8      0x468 component/uart/usart_adapter.o
 .xt.prop       0x00001710     0x18a8 drivers/fsl_clock.o
                                       0x18cc (size before relaxing)
 .xt.prop       0x00002fb8      0x234 drivers/fsl_common.o
 .xt.prop       0x000031ec      0x744 drivers/fsl_flexcomm.o
                                        0x768 (size before relaxing)
 .xt.prop       0x00003930      0x39c drivers/fsl_gpio.o
                                        0x3b4 (size before relaxing)
 .xt.prop       0x00003ccc      0x378 drivers/fsl_reset.o
 .xt.prop       0x00004044     0x1074 drivers/fsl_usart.o
                                       0x1098 (size before relaxing)
 .xt.prop       0x000050b8     0x1410 drivers_audio/fsl_dma.o
                                       0x1464 (size before relaxing)
 .xt.prop       0x000064c8      0x5ac drivers_audio/fsl_dmic.o
                                        0x5c4 (size before relaxing)
 .xt.prop       0x00006a74      0x66c drivers_audio/fsl_dmic_dma.o
                                        0x684 (size before relaxing)
 .xt.prop       0x000070e0      0xf6c drivers_audio/fsl_i2s.o
                                        0xfa8 (size before relaxing)
 .xt.prop       0x0000804c      0x99c drivers_audio/fsl_i2s_dma.o
                                        0x9e4 (size before relaxing)
 .xt.prop       0x000089e8      0x270 drivers_audio/fsl_inputmux.o
 .xt.prop       0x00008c58       0x24 evkmimxrt685/board_hifi4.o
 .xt.prop       0x00008c7c      0x51c user/main.o
                                        0x6b4 (size before relaxing)
 .xt.prop       0x00009198       0x30 user/user_pin_mux.o
                                         0x3c (size before relaxing)
 .xt.prop       0x000091c8      0x654 utilities/fsl_debug_console.o
                                        0x690 (size before relaxing)
 .xt.prop       0x0000981c      0xac8 utilities/fsl_str.o
 .xt.prop       0x0000a2e4      0x270 C:/usr/xtensa/XtDevTools/install/builds/RI-2019.1-win32/nxp_rt600_RI2019_newlib/xtensa-elf/arch/lib/\libxos.a(xos.o)
                                        0x2c4 (size before relaxing)
 .xt.prop       0x0000a554       0xa8 C:/usr/xtensa/XtDevTools/install/builds/RI-2019.1-win32/nxp_rt600_RI2019_newlib/xtensa-elf/arch/lib/\libxos.a(xos_exc_handler.o)
 .xt.prop       0x0000a5fc       0x18 C:/usr/xtensa/XtDevTools/install/builds/RI-2019.1-win32/nxp_rt600_RI2019_newlib/xtensa-elf/arch/lib/\libxos.a(xos_int_table.o)
 .xt.prop       0x0000a614       0x54 C:/usr/xtensa/XtDevTools/install/builds/RI-2019.1-win32/nxp_rt600_RI2019_newlib/xtensa-elf/arch/lib/\libxos.a(xos_start_main.o)
                                         0x6c (size before relaxing)
 .xt.prop       0x0000a668      0xd44 C:/usr/xtensa/XtDevTools/install/builds/RI-2019.1-win32/nxp_rt600_RI2019_newlib/xtensa-elf/arch/lib/\libxos.a(xos_thread.o)
                                        0xec4 (size before relaxing)
 .xt.prop       0x0000b3ac      0x660 C:/usr/xtensa/XtDevTools/install/builds/RI-2019.1-win32/nxp_rt600_RI2019_newlib/xtensa-elf/arch/lib/\libxos.a(xos_timer.o)
                                        0x744 (size before relaxing)
 .xt.prop       0x0000ba0c      0x2dc C:/usr/xtensa/XtDevTools/install/builds/RI-2019.1-win32/nxp_rt600_RI2019_newlib/xtensa-elf/arch/lib/\libxos.a(xos_handlers.o)
                                        0x2f4 (size before relaxing)
 .xt.prop       0x0000bce8       0xd8 C:/usr/xtensa/XtDevTools/install/builds/RI-2019.1-win32/nxp_rt600_RI2019_newlib/xtensa-elf/arch/lib/\libxos.a(xos_vectors.o)
 .xt.prop       0x0000bdc0       0xa8 C:/usr/xtensa/XtDevTools/install/builds/RI-2019.1-win32/nxp_rt600_RI2019_newlib/xtensa-elf/arch/lib/\libxos.a(xos_window_vectors.o)
                                         0xe4 (size before relaxing)
 .xt.prop       0x0000be68      0x174 C:/usr/xtensa/XtDevTools/install/builds/RI-2019.1-win32/nxp_rt600_RI2019_newlib/xtensa-elf/arch/lib/\libxos.a(xos_clib.o)
                                        0x1ec (size before relaxing)
 .xt.prop       0x0000bfdc      0x108 C:/usr/xtensa/XtDevTools/install/builds/RI-2019.1-win32/nxp_rt600_RI2019_newlib/xtensa-elf/arch/lib/\libxos.a(xos_coproc_handler.o)
 .xt.prop       0x0000c0e4      0x384 C:/usr/xtensa/XtDevTools/install/builds/RI-2019.1-win32/nxp_rt600_RI2019_newlib/xtensa-elf/arch/lib/\libxos.a(xos_mutex.o)
                                        0x3a8 (size before relaxing)
 .xt.prop       0x0000c468       0x90 C:/usr/xtensa/XtDevTools/install/builds/RI-2019.1-win32/nxp_rt600_RI2019_newlib/xtensa-elf/arch/lib/\libxos.a(xos_once.o)
                                         0xa8 (size before relaxing)
 .xt.prop       0x0000c4f8      0x1d4 C:/usr/xtensa/XtDevTools/install/builds/RI-2019.1-win32/nxp_rt600_RI2019_newlib/xtensa-elf/arch/lib/\libxos.a(xos_system_timer.o)
                                        0x204 (size before relaxing)
 .xt.prop       0x0000c6cc       0x18 C:/usr/xtensa/XtDevTools/install/builds/RI-2019.1-win32/nxp_rt600_RI2019_newlib/xtensa-elf/lib/xcc/\libgcc.a(_muldi3.o)
 .xt.prop       0x0000c6e4      0x18c C:/usr/xtensa/XtDevTools/install/builds/RI-2019.1-win32/nxp_rt600_RI2019_newlib/xtensa-elf/lib/xcc/\libgcc.a(_udivdi3.o)
 .xt.prop       0x0000c870       0x48 C:/usr/xtensa/XtDevTools/install/builds/RI-2019.1-win32/nxp_rt600_RI2019_newlib/xtensa-elf/lib/\libc.a(clibrary_init.o)
                                         0x54 (size before relaxing)
 .xt.prop       0x0000c8b8       0x3c C:/usr/xtensa/XtDevTools/install/builds/RI-2019.1-win32/nxp_rt600_RI2019_newlib/xtensa-elf/lib/\libc.a(lib_a-assert.o)
                                         0x48 (size before relaxing)
 .xt.prop       0x0000c8f4        0x0 C:/usr/xtensa/XtDevTools/install/builds/RI-2019.1-win32/nxp_rt600_RI2019_newlib/xtensa-elf/lib/\libc.a(lib_a-environ.o)
                                         0x18 (size before relaxing)
 .xt.prop       0x0000c8f4       0x24 C:/usr/xtensa/XtDevTools/install/builds/RI-2019.1-win32/nxp_rt600_RI2019_newlib/xtensa-elf/lib/\libc.a(lib_a-exit.o)
 .xt.prop       0x0000c918       0x30 C:/usr/xtensa/XtDevTools/install/builds/RI-2019.1-win32/nxp_rt600_RI2019_newlib/xtensa-elf/lib/\libc.a(lib_a-fiprintf.o)
                                         0x48 (size before relaxing)
 .xt.prop       0x0000c948       0x84 C:/usr/xtensa/XtDevTools/install/builds/RI-2019.1-win32/nxp_rt600_RI2019_newlib/xtensa-elf/lib/\libc.a(lib_a-impure.o)
                                         0x9c (size before relaxing)
 .xt.prop       0x0000c9cc       0x30 C:/usr/xtensa/XtDevTools/install/builds/RI-2019.1-win32/nxp_rt600_RI2019_newlib/xtensa-elf/lib/\libc.a(lib_a-malloc.o)
                                         0x48 (size before relaxing)
 .xt.prop       0x0000c9fc      0x4ec C:/usr/xtensa/XtDevTools/install/builds/RI-2019.1-win32/nxp_rt600_RI2019_newlib/xtensa-elf/lib/\libc.a(lib_a-mallocr.o)
                                        0x51c (size before relaxing)
 .xt.prop       0x0000cee8      0x144 C:/usr/xtensa/XtDevTools/install/builds/RI-2019.1-win32/nxp_rt600_RI2019_newlib/xtensa-elf/lib/\libc.a(lib_a-memcpy.o)
                                        0x150 (size before relaxing)
 .xt.prop       0x0000d02c       0xcc C:/usr/xtensa/XtDevTools/install/builds/RI-2019.1-win32/nxp_rt600_RI2019_newlib/xtensa-elf/lib/\libc.a(lib_a-memset.o)
                                         0xd8 (size before relaxing)
 .xt.prop       0x0000d0f8       0xfc C:/usr/xtensa/XtDevTools/install/builds/RI-2019.1-win32/nxp_rt600_RI2019_newlib/xtensa-elf/lib/\libc.a(lib_a-reent.o)
                                        0x120 (size before relaxing)
 .xt.prop       0x0000d1f4       0xb4 C:/usr/xtensa/XtDevTools/install/builds/RI-2019.1-win32/nxp_rt600_RI2019_newlib/xtensa-elf/lib/\libc.a(lib_a-strlen.o)
 .xt.prop       0x0000d2a8      0x2f4 C:/usr/xtensa/XtDevTools/install/builds/RI-2019.1-win32/nxp_rt600_RI2019_newlib/xtensa-elf/lib/\libc.a(lib_a-strtoul.o)
                                        0x300 (size before relaxing)
 .xt.prop       0x0000d59c     0x12a8 C:/usr/xtensa/XtDevTools/install/builds/RI-2019.1-win32/nxp_rt600_RI2019_newlib/xtensa-elf/lib/\libc.a(lib_a-vfiprintf.o)
                                       0x12d8 (size before relaxing)
 .xt.prop       0x0000e844      0x150 C:/usr/xtensa/XtDevTools/install/builds/RI-2019.1-win32/nxp_rt600_RI2019_newlib/xtensa-elf/lib/\libc.a(lib_a-wsetup.o)
                                        0x15c (size before relaxing)
 .xt.prop       0x0000e994       0x54 C:/usr/xtensa/XtDevTools/install/builds/RI-2019.1-win32/nxp_rt600_RI2019_newlib/xtensa-elf/lib/\libc.a(_atexit.o)
                                         0x60 (size before relaxing)
 .xt.prop       0x0000e9e8       0xf0 C:/usr/xtensa/XtDevTools/install/builds/RI-2019.1-win32/nxp_rt600_RI2019_newlib/xtensa-elf/lib/\libc.a(lib_a-__call_atexit.o)
 .xt.prop       0x0000ead8        0xc C:/usr/xtensa/XtDevTools/install/builds/RI-2019.1-win32/nxp_rt600_RI2019_newlib/xtensa-elf/lib/\libc.a(lib_a-abort.o)
                                         0x18 (size before relaxing)
 .xt.prop       0x0000eae4        0x0 C:/usr/xtensa/XtDevTools/install/builds/RI-2019.1-win32/nxp_rt600_RI2019_newlib/xtensa-elf/lib/\libc.a(lib_a-ctype_.o)
                                         0x18 (size before relaxing)
 .xt.prop       0x0000eae4      0x210 C:/usr/xtensa/XtDevTools/install/builds/RI-2019.1-win32/nxp_rt600_RI2019_newlib/xtensa-elf/lib/\libc.a(lib_a-fflush.o)
                                        0x21c (size before relaxing)
 .xt.prop       0x0000ecf4      0x270 C:/usr/xtensa/XtDevTools/install/builds/RI-2019.1-win32/nxp_rt600_RI2019_newlib/xtensa-elf/lib/\libc.a(lib_a-findfp.o)
                                        0x294 (size before relaxing)
 .xt.prop       0x0000ef64      0x12c C:/usr/xtensa/XtDevTools/install/builds/RI-2019.1-win32/nxp_rt600_RI2019_newlib/xtensa-elf/lib/\libc.a(lib_a-fputwc.o)
                                        0x144 (size before relaxing)
 .xt.prop       0x0000f090      0x2a0 C:/usr/xtensa/XtDevTools/install/builds/RI-2019.1-win32/nxp_rt600_RI2019_newlib/xtensa-elf/lib/\libc.a(lib_a-freer.o)
 .xt.prop       0x0000f330      0x2b8 C:/usr/xtensa/XtDevTools/install/builds/RI-2019.1-win32/nxp_rt600_RI2019_newlib/xtensa-elf/lib/\libc.a(lib_a-fvwrite.o)
 .xt.prop       0x0000f5e8       0xa8 C:/usr/xtensa/XtDevTools/install/builds/RI-2019.1-win32/nxp_rt600_RI2019_newlib/xtensa-elf/lib/\libc.a(lib_a-fwalk.o)
 .xt.prop       0x0000f690      0x15c C:/usr/xtensa/XtDevTools/install/builds/RI-2019.1-win32/nxp_rt600_RI2019_newlib/xtensa-elf/lib/\libc.a(lib_a-locale.o)
                                        0x1a4 (size before relaxing)
 .xt.prop       0x0000f7ec       0xe4 C:/usr/xtensa/XtDevTools/install/builds/RI-2019.1-win32/nxp_rt600_RI2019_newlib/xtensa-elf/lib/\libc.a(lib_a-makebuf.o)
 .xt.prop       0x0000f8d0       0xb4 C:/usr/xtensa/XtDevTools/install/builds/RI-2019.1-win32/nxp_rt600_RI2019_newlib/xtensa-elf/lib/\libc.a(lib_a-memchr.o)
 .xt.prop       0x0000f984       0xfc C:/usr/xtensa/XtDevTools/install/builds/RI-2019.1-win32/nxp_rt600_RI2019_newlib/xtensa-elf/lib/\libc.a(lib_a-memmove.o)
                                        0x108 (size before relaxing)
 .xt.prop       0x0000fa80      0x2ac C:/usr/xtensa/XtDevTools/install/builds/RI-2019.1-win32/nxp_rt600_RI2019_newlib/xtensa-elf/lib/\libc.a(lib_a-reallocr.o)
                                        0x2b8 (size before relaxing)
 .xt.prop       0x0000fd2c      0x2a0 C:/usr/xtensa/XtDevTools/install/builds/RI-2019.1-win32/nxp_rt600_RI2019_newlib/xtensa-elf/lib/\libc.a(lib_a-signal.o)
                                        0x300 (size before relaxing)
 .xt.prop       0x0000ffcc       0xfc C:/usr/xtensa/XtDevTools/install/builds/RI-2019.1-win32/nxp_rt600_RI2019_newlib/xtensa-elf/lib/\libc.a(lib_a-stdio.o)
                                        0x12c (size before relaxing)
 .xt.prop       0x000100c8      0x12c C:/usr/xtensa/XtDevTools/install/builds/RI-2019.1-win32/nxp_rt600_RI2019_newlib/xtensa-elf/lib/\libc.a(lib_a-strcmp.o)
 .xt.prop       0x000101f4       0xf0 C:/usr/xtensa/XtDevTools/install/builds/RI-2019.1-win32/nxp_rt600_RI2019_newlib/xtensa-elf/lib/\libc.a(lib_a-wbuf.o)
                                        0x108 (size before relaxing)
 .xt.prop       0x000102e4       0xe4 C:/usr/xtensa/XtDevTools/install/builds/RI-2019.1-win32/nxp_rt600_RI2019_newlib/xtensa-elf/lib/\libc.a(lib_a-wcrtomb.o)
                                         0xf0 (size before relaxing)
 .xt.prop       0x000103c8       0x78 C:/usr/xtensa/XtDevTools/install/builds/RI-2019.1-win32/nxp_rt600_RI2019_newlib/xtensa-elf/lib/\libc.a(lib_a-wctomb_r.o)
                                         0x90 (size before relaxing)
 .xt.prop       0x00010440       0x3c C:/usr/xtensa/XtDevTools/install/builds/RI-2019.1-win32/nxp_rt600_RI2019_newlib/xtensa-elf/lib/\libc.a(isatty.o)
                                         0x48 (size before relaxing)
 .xt.prop       0x0001047c       0xd8 C:/usr/xtensa/XtDevTools/install/builds/RI-2019.1-win32/nxp_rt600_RI2019_newlib/xtensa-elf/lib/\libc.a(lib_a-fclose.o)
                                         0xf0 (size before relaxing)
 .xt.prop       0x00010554       0xb4 C:/usr/xtensa/XtDevTools/install/builds/RI-2019.1-win32/nxp_rt600_RI2019_newlib/xtensa-elf/lib/\libgdbio.a(close.o)
                                         0xc0 (size before relaxing)
 .xt.prop       0x00010608      0x180 C:/usr/xtensa/XtDevTools/install/builds/RI-2019.1-win32/nxp_rt600_RI2019_newlib/xtensa-elf/lib/\libgdbio.a(fstat.o)
                                        0x18c (size before relaxing)
 .xt.prop       0x00010788       0x30 C:/usr/xtensa/XtDevTools/install/builds/RI-2019.1-win32/nxp_rt600_RI2019_newlib/xtensa-elf/lib/\libgdbio.a(kill.o)
                                         0x3c (size before relaxing)
 .xt.prop       0x000107b8       0x54 C:/usr/xtensa/XtDevTools/install/builds/RI-2019.1-win32/nxp_rt600_RI2019_newlib/xtensa-elf/lib/\libgdbio.a(libinit.o)
 .xt.prop       0x0001080c       0x90 C:/usr/xtensa/XtDevTools/install/builds/RI-2019.1-win32/nxp_rt600_RI2019_newlib/xtensa-elf/lib/\libgdbio.a(lseek.o)
                                         0x9c (size before relaxing)
 .xt.prop       0x0001089c       0x84 C:/usr/xtensa/XtDevTools/install/builds/RI-2019.1-win32/nxp_rt600_RI2019_newlib/xtensa-elf/lib/\libgdbio.a(read.o)
                                         0x90 (size before relaxing)
 .xt.prop       0x00010920      0x414 C:/usr/xtensa/XtDevTools/install/builds/RI-2019.1-win32/nxp_rt600_RI2019_newlib/xtensa-elf/lib/\libgdbio.a(semihosting.o)
                                        0x420 (size before relaxing)
 .xt.prop       0x00010d34       0x18 C:/usr/xtensa/XtDevTools/install/builds/RI-2019.1-win32/nxp_rt600_RI2019_newlib/xtensa-elf/lib/\libgdbio.a(syscall.o)
 .xt.prop       0x00010d4c       0x84 C:/usr/xtensa/XtDevTools/install/builds/RI-2019.1-win32/nxp_rt600_RI2019_newlib/xtensa-elf/lib/\libgdbio.a(write.o)
                                         0x90 (size before relaxing)
 .xt.prop       0x00010dd0       0x18 C:/usr/xtensa/XtDevTools/install/builds/RI-2019.1-win32/nxp_rt600_RI2019_newlib/xtensa-elf/lib/\libgdbio.a(getpid.o)
 .xt.prop       0x00010de8       0x18 C:/usr/xtensa/XtDevTools/install/builds/RI-2019.1-win32/nxp_rt600_RI2019_newlib/xtensa-elf/lib/\libgdbio.a(miniboard.o)
 .xt.prop       0x00010e00       0xc0 C:/usr/xtensa/XtDevTools/install/builds/RI-2019.1-win32/nxp_rt600_RI2019_newlib/xtensa-elf/arch/lib/\libhandler-reset.a(reset-vector.o)
 .xt.prop       0x00010ec0       0x24 C:/usr/xtensa/XtDevTools/install/builds/RI-2019.1-win32/nxp_rt600_RI2019_newlib/xtensa-elf/arch/lib/\libhandlers-board.a(exit.o)
                                         0x30 (size before relaxing)
 .xt.prop       0x00010ee4       0xe4 C:/usr/xtensa/XtDevTools/install/builds/RI-2019.1-win32/nxp_rt600_RI2019_newlib/xtensa-elf/arch/lib/\libhal.a(windowspill_asm.o)
                                         0xf0 (size before relaxing)
 .xt.prop       0x00010fc8       0x24 C:/usr/xtensa/XtDevTools/install/builds/RI-2019.1-win32/nxp_rt600_RI2019_newlib/xtensa-elf/arch/lib/\libhal.a(cache_asm--dcache_all_writeback.o)
                                         0x30 (size before relaxing)
 .xt.prop       0x00010fec        0x0 C:/usr/xtensa/XtDevTools/install/builds/RI-2019.1-win32/nxp_rt600_RI2019_newlib/xtensa-elf/arch/lib/\libhal.a(const--intlevel.o)
                                          0xc (size before relaxing)
 .xt.prop       0x00010fec        0x0 C:/usr/xtensa/XtDevTools/install/builds/RI-2019.1-win32/nxp_rt600_RI2019_newlib/xtensa-elf/arch/lib/\libhal.a(const--intlevel_mask.o)
                                          0xc (size before relaxing)
 .xt.prop       0x00010fec        0x0 C:/usr/xtensa/XtDevTools/install/builds/RI-2019.1-win32/nxp_rt600_RI2019_newlib/xtensa-elf/arch/lib/\libhal.a(const--timer_interrupt.o)
                                          0xc (size before relaxing)
 .xt.prop       0x00010fec      0x180 C:/usr/xtensa/XtDevTools/install/builds/RI-2019.1-win32/nxp_rt600_RI2019_newlib/xtensa-elf/arch/lib/\libhal.a(attribute.o)
                                        0x18c (size before relaxing)
 .xt.prop       0x0001116c       0xa8 C:/usr/xtensa/XtDevTools/install/builds/RI-2019.1-win32/nxp_rt600_RI2019_newlib/xtensa-elf/arch/lib/\libhal.a(clock.o)
 .xt.prop       0x00011214       0x30 C:/usr/xtensa/XtDevTools/install/builds/RI-2019.1-win32/nxp_rt600_RI2019_newlib/xtensa-elf/arch/lib/\libhal.a(cache_attr--get_cacheattr.o)
 .xt.prop       0x00011244       0x78 C:/usr/xtensa/XtDevTools/install/builds/RI-2019.1-win32/nxp_rt600_RI2019_newlib/xtensa-elf/arch/lib/\libhal.a(cache_attr--set_cacheattr.o)
 .xt.prop       0x000112bc       0x24 C:/usr/xtensa/XtDevTools/install/builds/RI-2019.1-win32/nxp_rt600_RI2019_newlib/xtensa-elf/arch/lib/\libhal.a(cache_asm--dcache_all_writeback_inv.o)
                                         0x30 (size before relaxing)
 .xt.prop       0x000112e0       0x24 C:/usr/xtensa/XtDevTools/install/builds/RI-2019.1-win32/nxp_rt600_RI2019_newlib/xtensa-elf/arch/lib/\libhal.a(cache_asm--icache_all_invalidate.o)
                                         0x30 (size before relaxing)
 .xt.prop       0x00011304      0x1ec C:/usr/xtensa/XtDevTools/install/builds/RI-2019.1-win32/nxp_rt600_RI2019_newlib/xtensa-elf/lib/xcc/\libgcc.a(_umoddi3.o)
 .xt.prop       0x000114f0       0x54 C:/usr/xtensa/XtDevTools/install/builds/RI-2019.1-win32/nxp_rt600_RI2019_newlib/xtensa-elf/lib/xcc/crtend.o
                                         0x6c (size before relaxing)
 .xt.prop       0x00011544       0x30 C:/usr/xtensa/XtDevTools/install/builds/RI-2019.1-win32/nxp_rt600_RI2019_newlib/xtensa-elf/lib/xcc/crtn.o
 *(.xt.prop.*)
 *(.gnu.linkonce.prop.*)

.xt.lit         0x00000000      0x340
 *(.xt.lit)
 .xt.lit        0x00000000        0x8 C:/usr/xtensa/XtDevTools/install/builds/RI-2019.1-win32/nxp_rt600_RI2019_newlib/xtensa-elf/arch/lib/crt1-boards.o
 .xt.lit        0x00000008       0x18 C:/usr/xtensa/XtDevTools/install/builds/RI-2019.1-win32/nxp_rt600_RI2019_newlib/xtensa-elf/lib/xcc/crtbegin.o
 .xt.lit        0x00000020        0x8 MIMXRT685S/system_MIMXRT685S_dsp.o
 .xt.lit        0x00000028        0x8 board/pin_mux.o
 .xt.lit        0x00000030        0x8 component/lists/generic_list.o
 .xt.lit        0x00000038        0x8 component/serial_manager/serial_manager.o
 .xt.lit        0x00000040        0x8 component/serial_manager/serial_port_uart.o
 .xt.lit        0x00000048        0x8 component/uart/usart_adapter.o
 .xt.lit        0x00000050        0x8 drivers/fsl_clock.o
 .xt.lit        0x00000058        0x8 drivers/fsl_common.o
 .xt.lit        0x00000060        0x8 drivers/fsl_flexcomm.o
 .xt.lit        0x00000068        0x8 drivers/fsl_gpio.o
 .xt.lit        0x00000070        0x8 drivers/fsl_reset.o
 .xt.lit        0x00000078        0x8 drivers/fsl_usart.o
 .xt.lit        0x00000080        0x8 drivers_audio/fsl_dma.o
 .xt.lit        0x00000088        0x8 drivers_audio/fsl_dmic.o
 .xt.lit        0x00000090        0x8 drivers_audio/fsl_dmic_dma.o
 .xt.lit        0x00000098        0x8 drivers_audio/fsl_i2s.o
 .xt.lit        0x000000a0        0x8 drivers_audio/fsl_i2s_dma.o
 .xt.lit        0x000000a8        0x8 drivers_audio/fsl_inputmux.o
 .xt.lit        0x000000b0        0x8 evkmimxrt685/board_hifi4.o
 .xt.lit        0x000000b8        0x8 user/main.o
 .xt.lit        0x000000c0        0x0 user/user_pin_mux.o
                                          0x8 (size before relaxing)
 .xt.lit        0x000000c0        0x8 utilities/fsl_debug_console.o
 .xt.lit        0x000000c8        0x8 utilities/fsl_str.o
 .xt.lit        0x000000d0       0x40 C:/usr/xtensa/XtDevTools/install/builds/RI-2019.1-win32/nxp_rt600_RI2019_newlib/xtensa-elf/arch/lib/\libxos.a(xos.o)
                                         0x60 (size before relaxing)
 .xt.lit        0x00000110        0x8 C:/usr/xtensa/XtDevTools/install/builds/RI-2019.1-win32/nxp_rt600_RI2019_newlib/xtensa-elf/arch/lib/\libxos.a(xos_exc_handler.o)
 .xt.lit        0x00000118        0x8 C:/usr/xtensa/XtDevTools/install/builds/RI-2019.1-win32/nxp_rt600_RI2019_newlib/xtensa-elf/arch/lib/\libxos.a(xos_start_main.o)
 .xt.lit        0x00000120       0x50 C:/usr/xtensa/XtDevTools/install/builds/RI-2019.1-win32/nxp_rt600_RI2019_newlib/xtensa-elf/arch/lib/\libxos.a(xos_thread.o)
                                         0xd8 (size before relaxing)
 .xt.lit        0x00000170       0x18 C:/usr/xtensa/XtDevTools/install/builds/RI-2019.1-win32/nxp_rt600_RI2019_newlib/xtensa-elf/arch/lib/\libxos.a(xos_timer.o)
                                         0x58 (size before relaxing)
 .xt.lit        0x00000188        0x8 C:/usr/xtensa/XtDevTools/install/builds/RI-2019.1-win32/nxp_rt600_RI2019_newlib/xtensa-elf/arch/lib/\libxos.a(xos_handlers.o)
 .xt.lit        0x00000190       0x18 C:/usr/xtensa/XtDevTools/install/builds/RI-2019.1-win32/nxp_rt600_RI2019_newlib/xtensa-elf/arch/lib/\libxos.a(xos_vectors.o)
 .xt.lit        0x000001a8       0x18 C:/usr/xtensa/XtDevTools/install/builds/RI-2019.1-win32/nxp_rt600_RI2019_newlib/xtensa-elf/arch/lib/\libxos.a(xos_clib.o)
                                         0x40 (size before relaxing)
 .xt.lit        0x000001c0        0x8 C:/usr/xtensa/XtDevTools/install/builds/RI-2019.1-win32/nxp_rt600_RI2019_newlib/xtensa-elf/arch/lib/\libxos.a(xos_coproc_handler.o)
 .xt.lit        0x000001c8       0x20 C:/usr/xtensa/XtDevTools/install/builds/RI-2019.1-win32/nxp_rt600_RI2019_newlib/xtensa-elf/arch/lib/\libxos.a(xos_mutex.o)
                                         0x38 (size before relaxing)
 .xt.lit        0x000001e8        0x8 C:/usr/xtensa/XtDevTools/install/builds/RI-2019.1-win32/nxp_rt600_RI2019_newlib/xtensa-elf/arch/lib/\libxos.a(xos_once.o)
                                         0x10 (size before relaxing)
 .xt.lit        0x000001f0       0x20 C:/usr/xtensa/XtDevTools/install/builds/RI-2019.1-win32/nxp_rt600_RI2019_newlib/xtensa-elf/arch/lib/\libxos.a(xos_system_timer.o)
                                         0x30 (size before relaxing)
 .xt.lit        0x00000210        0x8 C:/usr/xtensa/XtDevTools/install/builds/RI-2019.1-win32/nxp_rt600_RI2019_newlib/xtensa-elf/lib/\libc.a(clibrary_init.o)
 .xt.lit        0x00000218        0x8 C:/usr/xtensa/XtDevTools/install/builds/RI-2019.1-win32/nxp_rt600_RI2019_newlib/xtensa-elf/lib/\libc.a(lib_a-assert.o)
                                         0x10 (size before relaxing)
 .xt.lit        0x00000220        0x8 C:/usr/xtensa/XtDevTools/install/builds/RI-2019.1-win32/nxp_rt600_RI2019_newlib/xtensa-elf/lib/\libc.a(lib_a-exit.o)
 .xt.lit        0x00000228        0x0 C:/usr/xtensa/XtDevTools/install/builds/RI-2019.1-win32/nxp_rt600_RI2019_newlib/xtensa-elf/lib/\libc.a(lib_a-fiprintf.o)
                                         0x10 (size before relaxing)
 .xt.lit        0x00000228        0x0 C:/usr/xtensa/XtDevTools/install/builds/RI-2019.1-win32/nxp_rt600_RI2019_newlib/xtensa-elf/lib/\libc.a(lib_a-malloc.o)
                                         0x10 (size before relaxing)
 .xt.lit        0x00000228        0x8 C:/usr/xtensa/XtDevTools/install/builds/RI-2019.1-win32/nxp_rt600_RI2019_newlib/xtensa-elf/lib/\libc.a(lib_a-mallocr.o)
 .xt.lit        0x00000230        0x0 C:/usr/xtensa/XtDevTools/install/builds/RI-2019.1-win32/nxp_rt600_RI2019_newlib/xtensa-elf/lib/\libc.a(lib_a-reent.o)
                                         0x18 (size before relaxing)
 .xt.lit        0x00000230        0x8 C:/usr/xtensa/XtDevTools/install/builds/RI-2019.1-win32/nxp_rt600_RI2019_newlib/xtensa-elf/lib/\libc.a(lib_a-strlen.o)
 .xt.lit        0x00000238        0x8 C:/usr/xtensa/XtDevTools/install/builds/RI-2019.1-win32/nxp_rt600_RI2019_newlib/xtensa-elf/lib/\libc.a(lib_a-strtoul.o)
                                         0x10 (size before relaxing)
 .xt.lit        0x00000240        0x8 C:/usr/xtensa/XtDevTools/install/builds/RI-2019.1-win32/nxp_rt600_RI2019_newlib/xtensa-elf/lib/\libc.a(lib_a-vfiprintf.o)
                                         0x20 (size before relaxing)
 .xt.lit        0x00000248        0x0 C:/usr/xtensa/XtDevTools/install/builds/RI-2019.1-win32/nxp_rt600_RI2019_newlib/xtensa-elf/lib/\libc.a(lib_a-wsetup.o)
                                          0x8 (size before relaxing)
 .xt.lit        0x00000248        0x0 C:/usr/xtensa/XtDevTools/install/builds/RI-2019.1-win32/nxp_rt600_RI2019_newlib/xtensa-elf/lib/\libc.a(_atexit.o)
                                          0x8 (size before relaxing)
 .xt.lit        0x00000248        0x8 C:/usr/xtensa/XtDevTools/install/builds/RI-2019.1-win32/nxp_rt600_RI2019_newlib/xtensa-elf/lib/\libc.a(lib_a-__call_atexit.o)
 .xt.lit        0x00000250        0x0 C:/usr/xtensa/XtDevTools/install/builds/RI-2019.1-win32/nxp_rt600_RI2019_newlib/xtensa-elf/lib/\libc.a(lib_a-abort.o)
                                          0x8 (size before relaxing)
 .xt.lit        0x00000250       0x10 C:/usr/xtensa/XtDevTools/install/builds/RI-2019.1-win32/nxp_rt600_RI2019_newlib/xtensa-elf/lib/\libc.a(lib_a-fflush.o)
                                         0x18 (size before relaxing)
 .xt.lit        0x00000260       0x20 C:/usr/xtensa/XtDevTools/install/builds/RI-2019.1-win32/nxp_rt600_RI2019_newlib/xtensa-elf/lib/\libc.a(lib_a-findfp.o)
                                         0x38 (size before relaxing)
 .xt.lit        0x00000280        0x0 C:/usr/xtensa/XtDevTools/install/builds/RI-2019.1-win32/nxp_rt600_RI2019_newlib/xtensa-elf/lib/\libc.a(lib_a-fputwc.o)
                                         0x10 (size before relaxing)
 .xt.lit        0x00000280       0x10 C:/usr/xtensa/XtDevTools/install/builds/RI-2019.1-win32/nxp_rt600_RI2019_newlib/xtensa-elf/lib/\libc.a(lib_a-freer.o)
 .xt.lit        0x00000290        0x8 C:/usr/xtensa/XtDevTools/install/builds/RI-2019.1-win32/nxp_rt600_RI2019_newlib/xtensa-elf/lib/\libc.a(lib_a-fvwrite.o)
 .xt.lit        0x00000298       0x30 C:/usr/xtensa/XtDevTools/install/builds/RI-2019.1-win32/nxp_rt600_RI2019_newlib/xtensa-elf/lib/\libc.a(lib_a-locale.o)
                                         0x40 (size before relaxing)
 .xt.lit        0x000002c8        0x8 C:/usr/xtensa/XtDevTools/install/builds/RI-2019.1-win32/nxp_rt600_RI2019_newlib/xtensa-elf/lib/\libc.a(lib_a-makebuf.o)
 .xt.lit        0x000002d0        0x8 C:/usr/xtensa/XtDevTools/install/builds/RI-2019.1-win32/nxp_rt600_RI2019_newlib/xtensa-elf/lib/\libc.a(lib_a-memchr.o)
 .xt.lit        0x000002d8        0x0 C:/usr/xtensa/XtDevTools/install/builds/RI-2019.1-win32/nxp_rt600_RI2019_newlib/xtensa-elf/lib/\libc.a(lib_a-reallocr.o)
                                          0x8 (size before relaxing)
 .xt.lit        0x000002d8        0x0 C:/usr/xtensa/XtDevTools/install/builds/RI-2019.1-win32/nxp_rt600_RI2019_newlib/xtensa-elf/lib/\libc.a(lib_a-signal.o)
                                         0x40 (size before relaxing)
 .xt.lit        0x000002d8        0x0 C:/usr/xtensa/XtDevTools/install/builds/RI-2019.1-win32/nxp_rt600_RI2019_newlib/xtensa-elf/lib/\libc.a(lib_a-stdio.o)
                                         0x20 (size before relaxing)
 .xt.lit        0x000002d8        0x8 C:/usr/xtensa/XtDevTools/install/builds/RI-2019.1-win32/nxp_rt600_RI2019_newlib/xtensa-elf/lib/\libc.a(lib_a-strcmp.o)
 .xt.lit        0x000002e0        0x0 C:/usr/xtensa/XtDevTools/install/builds/RI-2019.1-win32/nxp_rt600_RI2019_newlib/xtensa-elf/lib/\libc.a(lib_a-wbuf.o)
                                         0x10 (size before relaxing)
 .xt.lit        0x000002e0        0x8 C:/usr/xtensa/XtDevTools/install/builds/RI-2019.1-win32/nxp_rt600_RI2019_newlib/xtensa-elf/lib/\libc.a(lib_a-wcrtomb.o)
                                         0x10 (size before relaxing)
 .xt.lit        0x000002e8        0x0 C:/usr/xtensa/XtDevTools/install/builds/RI-2019.1-win32/nxp_rt600_RI2019_newlib/xtensa-elf/lib/\libc.a(lib_a-wctomb_r.o)
                                          0x8 (size before relaxing)
 .xt.lit        0x000002e8        0x0 C:/usr/xtensa/XtDevTools/install/builds/RI-2019.1-win32/nxp_rt600_RI2019_newlib/xtensa-elf/lib/\libc.a(isatty.o)
                                          0x8 (size before relaxing)
 .xt.lit        0x000002e8        0x0 C:/usr/xtensa/XtDevTools/install/builds/RI-2019.1-win32/nxp_rt600_RI2019_newlib/xtensa-elf/lib/\libc.a(lib_a-fclose.o)
                                         0x10 (size before relaxing)
 .xt.lit        0x000002e8        0x8 C:/usr/xtensa/XtDevTools/install/builds/RI-2019.1-win32/nxp_rt600_RI2019_newlib/xtensa-elf/lib/\libgdbio.a(close.o)
 .xt.lit        0x000002f0        0x0 C:/usr/xtensa/XtDevTools/install/builds/RI-2019.1-win32/nxp_rt600_RI2019_newlib/xtensa-elf/lib/\libgdbio.a(fstat.o)
                                          0x8 (size before relaxing)
 .xt.lit        0x000002f0        0x0 C:/usr/xtensa/XtDevTools/install/builds/RI-2019.1-win32/nxp_rt600_RI2019_newlib/xtensa-elf/lib/\libgdbio.a(kill.o)
                                          0x8 (size before relaxing)
 .xt.lit        0x000002f0        0x8 C:/usr/xtensa/XtDevTools/install/builds/RI-2019.1-win32/nxp_rt600_RI2019_newlib/xtensa-elf/lib/\libgdbio.a(libinit.o)
 .xt.lit        0x000002f8        0x0 C:/usr/xtensa/XtDevTools/install/builds/RI-2019.1-win32/nxp_rt600_RI2019_newlib/xtensa-elf/lib/\libgdbio.a(lseek.o)
                                          0x8 (size before relaxing)
 .xt.lit        0x000002f8        0x8 C:/usr/xtensa/XtDevTools/install/builds/RI-2019.1-win32/nxp_rt600_RI2019_newlib/xtensa-elf/lib/\libgdbio.a(read.o)
 .xt.lit        0x00000300        0x8 C:/usr/xtensa/XtDevTools/install/builds/RI-2019.1-win32/nxp_rt600_RI2019_newlib/xtensa-elf/lib/\libgdbio.a(semihosting.o)
 .xt.lit        0x00000308        0x8 C:/usr/xtensa/XtDevTools/install/builds/RI-2019.1-win32/nxp_rt600_RI2019_newlib/xtensa-elf/lib/\libgdbio.a(write.o)
 .xt.lit        0x00000310        0x8 C:/usr/xtensa/XtDevTools/install/builds/RI-2019.1-win32/nxp_rt600_RI2019_newlib/xtensa-elf/arch/lib/\libhandler-reset.a(reset-vector.o)
 .xt.lit        0x00000318        0x0 C:/usr/xtensa/XtDevTools/install/builds/RI-2019.1-win32/nxp_rt600_RI2019_newlib/xtensa-elf/arch/lib/\libhandlers-board.a(exit.o)
                                          0x8 (size before relaxing)
 .xt.lit        0x00000318        0x0 C:/usr/xtensa/XtDevTools/install/builds/RI-2019.1-win32/nxp_rt600_RI2019_newlib/xtensa-elf/arch/lib/\libhal.a(windowspill_asm.o)
                                          0x8 (size before relaxing)
 .xt.lit        0x00000318        0x8 C:/usr/xtensa/XtDevTools/install/builds/RI-2019.1-win32/nxp_rt600_RI2019_newlib/xtensa-elf/arch/lib/\libhal.a(attribute.o)
 .xt.lit        0x00000320        0x8 C:/usr/xtensa/XtDevTools/install/builds/RI-2019.1-win32/nxp_rt600_RI2019_newlib/xtensa-elf/arch/lib/\libhal.a(cache_attr--get_cacheattr.o)
 .xt.lit        0x00000328        0x8 C:/usr/xtensa/XtDevTools/install/builds/RI-2019.1-win32/nxp_rt600_RI2019_newlib/xtensa-elf/arch/lib/\libhal.a(cache_attr--set_cacheattr.o)
 .xt.lit        0x00000330       0x10 C:/usr/xtensa/XtDevTools/install/builds/RI-2019.1-win32/nxp_rt600_RI2019_newlib/xtensa-elf/lib/xcc/crtend.o
 *(.xt.lit.*)
 *(.gnu.linkonce.p.*)

.debug.xt.callgraph
 *(.debug.xt.callgraph .debug.xt.callgraph.* .gnu.linkonce.xt.callgraph.*)
OUTPUT(eight_channel_dmic_i2s_playback elf32-xtensa-le)

.xtensa.info    0x00000000      0x214
 .xtensa.info   0x00000000      0x214 C:/usr/xtensa/XtDevTools/install/builds/RI-2019.1-win32/nxp_rt600_RI2019_newlib/xtensa-elf/arch/lib/crt1-boards.o
 .xtensa.info   0x00000000        0x0 C:/usr/xtensa/XtDevTools/install/builds/RI-2019.1-win32/nxp_rt600_RI2019_newlib/xtensa-elf/lib/xcc/crti.o
 .xtensa.info   0x00000000        0x0 C:/usr/xtensa/XtDevTools/install/builds/RI-2019.1-win32/nxp_rt600_RI2019_newlib/xtensa-elf/lib/xcc/crtbegin.o
 .xtensa.info   0x00000000        0x0 C:/usr/xtensa/XtDevTools/install/builds/RI-2019.1-win32/nxp_rt600_RI2019_newlib/xtensa-elf/arch/lib/_sharedvectors.o
 .xtensa.info   0x00000000        0x0 C:/usr/xtensa/XtDevTools/install/builds/RI-2019.1-win32/nxp_rt600_RI2019_newlib/xtensa-elf/arch/lib/_vectors.o
 .xtensa.info   0x00000000        0x0 MIMXRT685S/system_MIMXRT685S_dsp.o
 .xtensa.info   0x00000000        0x0 board/pin_mux.o
 .xtensa.info   0x00000000        0x0 component/lists/generic_list.o
 .xtensa.info   0x00000000        0x0 component/serial_manager/serial_manager.o
 .xtensa.info   0x00000000        0x0 component/serial_manager/serial_port_uart.o
 .xtensa.info   0x00000000        0x0 component/uart/usart_adapter.o
 .xtensa.info   0x00000000        0x0 drivers/fsl_clock.o
 .xtensa.info   0x00000000        0x0 drivers/fsl_common.o
 .xtensa.info   0x00000000        0x0 drivers/fsl_flexcomm.o
 .xtensa.info   0x00000000        0x0 drivers/fsl_gpio.o
 .xtensa.info   0x00000000        0x0 drivers/fsl_reset.o
 .xtensa.info   0x00000000        0x0 drivers/fsl_usart.o
 .xtensa.info   0x00000000        0x0 drivers_audio/fsl_dma.o
 .xtensa.info   0x00000000        0x0 drivers_audio/fsl_dmic.o
 .xtensa.info   0x00000000        0x0 drivers_audio/fsl_dmic_dma.o
 .xtensa.info   0x00000000        0x0 drivers_audio/fsl_i2s.o
 .xtensa.info   0x00000000        0x0 drivers_audio/fsl_i2s_dma.o
 .xtensa.info   0x00000000        0x0 drivers_audio/fsl_inputmux.o
 .xtensa.info   0x00000000        0x0 evkmimxrt685/board_hifi4.o
 .xtensa.info   0x00000000        0x0 user/main.o
 .xtensa.info   0x00000000        0x0 user/user_pin_mux.o
 .xtensa.info   0x00000000        0x0 utilities/fsl_debug_console.o
 .xtensa.info   0x00000000        0x0 utilities/fsl_str.o
 .xtensa.info   0x00000000        0x0 C:/usr/xtensa/XtDevTools/install/builds/RI-2019.1-win32/nxp_rt600_RI2019_newlib/xtensa-elf/arch/lib/\libxos.a(xos.o)
 .xtensa.info   0x00000000        0x0 C:/usr/xtensa/XtDevTools/install/builds/RI-2019.1-win32/nxp_rt600_RI2019_newlib/xtensa-elf/arch/lib/\libxos.a(xos_exc_handler.o)
 .xtensa.info   0x00000000        0x0 C:/usr/xtensa/XtDevTools/install/builds/RI-2019.1-win32/nxp_rt600_RI2019_newlib/xtensa-elf/arch/lib/\libxos.a(xos_int_table.o)
 .xtensa.info   0x00000000        0x0 C:/usr/xtensa/XtDevTools/install/builds/RI-2019.1-win32/nxp_rt600_RI2019_newlib/xtensa-elf/arch/lib/\libxos.a(xos_start_main.o)
 .xtensa.info   0x00000000        0x0 C:/usr/xtensa/XtDevTools/install/builds/RI-2019.1-win32/nxp_rt600_RI2019_newlib/xtensa-elf/arch/lib/\libxos.a(xos_thread.o)
 .xtensa.info   0x00000000        0x0 C:/usr/xtensa/XtDevTools/install/builds/RI-2019.1-win32/nxp_rt600_RI2019_newlib/xtensa-elf/arch/lib/\libxos.a(xos_timer.o)
 .xtensa.info   0x00000000        0x0 C:/usr/xtensa/XtDevTools/install/builds/RI-2019.1-win32/nxp_rt600_RI2019_newlib/xtensa-elf/arch/lib/\libxos.a(xos_handlers.o)
 .xtensa.info   0x00000000        0x0 C:/usr/xtensa/XtDevTools/install/builds/RI-2019.1-win32/nxp_rt600_RI2019_newlib/xtensa-elf/arch/lib/\libxos.a(xos_int_stack.o)
 .xtensa.info   0x00000000        0x0 C:/usr/xtensa/XtDevTools/install/builds/RI-2019.1-win32/nxp_rt600_RI2019_newlib/xtensa-elf/arch/lib/\libxos.a(xos_vectors.o)
 .xtensa.info   0x00000000        0x0 C:/usr/xtensa/XtDevTools/install/builds/RI-2019.1-win32/nxp_rt600_RI2019_newlib/xtensa-elf/arch/lib/\libxos.a(xos_window_vectors.o)
 .xtensa.info   0x00000000        0x0 C:/usr/xtensa/XtDevTools/install/builds/RI-2019.1-win32/nxp_rt600_RI2019_newlib/xtensa-elf/arch/lib/\libxos.a(xos_clib.o)
 .xtensa.info   0x00000000        0x0 C:/usr/xtensa/XtDevTools/install/builds/RI-2019.1-win32/nxp_rt600_RI2019_newlib/xtensa-elf/arch/lib/\libxos.a(xos_coproc_handler.o)
 .xtensa.info   0x00000000        0x0 C:/usr/xtensa/XtDevTools/install/builds/RI-2019.1-win32/nxp_rt600_RI2019_newlib/xtensa-elf/arch/lib/\libxos.a(xos_mutex.o)
 .xtensa.info   0x00000000        0x0 C:/usr/xtensa/XtDevTools/install/builds/RI-2019.1-win32/nxp_rt600_RI2019_newlib/xtensa-elf/arch/lib/\libxos.a(xos_once.o)
 .xtensa.info   0x00000000        0x0 C:/usr/xtensa/XtDevTools/install/builds/RI-2019.1-win32/nxp_rt600_RI2019_newlib/xtensa-elf/arch/lib/\libxos.a(xos_system_timer.o)
 .xtensa.info   0x00000000        0x0 C:/usr/xtensa/XtDevTools/install/builds/RI-2019.1-win32/nxp_rt600_RI2019_newlib/xtensa-elf/lib/xcc/\libgcc.a(_muldi3.o)
 .xtensa.info   0x00000000        0x0 C:/usr/xtensa/XtDevTools/install/builds/RI-2019.1-win32/nxp_rt600_RI2019_newlib/xtensa-elf/lib/xcc/\libgcc.a(_udivdi3.o)
 .xtensa.info   0x00000000        0x0 C:/usr/xtensa/XtDevTools/install/builds/RI-2019.1-win32/nxp_rt600_RI2019_newlib/xtensa-elf/lib/\libc.a(clibrary_init.o)
 .xtensa.info   0x00000000        0x0 C:/usr/xtensa/XtDevTools/install/builds/RI-2019.1-win32/nxp_rt600_RI2019_newlib/xtensa-elf/lib/\libc.a(lib_a-assert.o)
 .xtensa.info   0x00000000        0x0 C:/usr/xtensa/XtDevTools/install/builds/RI-2019.1-win32/nxp_rt600_RI2019_newlib/xtensa-elf/lib/\libc.a(lib_a-environ.o)
 .xtensa.info   0x00000000        0x0 C:/usr/xtensa/XtDevTools/install/builds/RI-2019.1-win32/nxp_rt600_RI2019_newlib/xtensa-elf/lib/\libc.a(lib_a-exit.o)
 .xtensa.info   0x00000000        0x0 C:/usr/xtensa/XtDevTools/install/builds/RI-2019.1-win32/nxp_rt600_RI2019_newlib/xtensa-elf/lib/\libc.a(lib_a-fiprintf.o)
 .xtensa.info   0x00000000        0x0 C:/usr/xtensa/XtDevTools/install/builds/RI-2019.1-win32/nxp_rt600_RI2019_newlib/xtensa-elf/lib/\libc.a(lib_a-impure.o)
 .xtensa.info   0x00000000        0x0 C:/usr/xtensa/XtDevTools/install/builds/RI-2019.1-win32/nxp_rt600_RI2019_newlib/xtensa-elf/lib/\libc.a(lib_a-malloc.o)
 .xtensa.info   0x00000000        0x0 C:/usr/xtensa/XtDevTools/install/builds/RI-2019.1-win32/nxp_rt600_RI2019_newlib/xtensa-elf/lib/\libc.a(lib_a-mallocr.o)
 .xtensa.info   0x00000000        0x0 C:/usr/xtensa/XtDevTools/install/builds/RI-2019.1-win32/nxp_rt600_RI2019_newlib/xtensa-elf/lib/\libc.a(lib_a-memcpy.o)
 .xtensa.info   0x00000000        0x0 C:/usr/xtensa/XtDevTools/install/builds/RI-2019.1-win32/nxp_rt600_RI2019_newlib/xtensa-elf/lib/\libc.a(lib_a-memset.o)
 .xtensa.info   0x00000000        0x0 C:/usr/xtensa/XtDevTools/install/builds/RI-2019.1-win32/nxp_rt600_RI2019_newlib/xtensa-elf/lib/\libc.a(lib_a-reent.o)
 .xtensa.info   0x00000000        0x0 C:/usr/xtensa/XtDevTools/install/builds/RI-2019.1-win32/nxp_rt600_RI2019_newlib/xtensa-elf/lib/\libc.a(lib_a-strlen.o)
 .xtensa.info   0x00000000        0x0 C:/usr/xtensa/XtDevTools/install/builds/RI-2019.1-win32/nxp_rt600_RI2019_newlib/xtensa-elf/lib/\libc.a(lib_a-strtoul.o)
 .xtensa.info   0x00000000        0x0 C:/usr/xtensa/XtDevTools/install/builds/RI-2019.1-win32/nxp_rt600_RI2019_newlib/xtensa-elf/lib/\libc.a(lib_a-vfiprintf.o)
 .xtensa.info   0x00000000        0x0 C:/usr/xtensa/XtDevTools/install/builds/RI-2019.1-win32/nxp_rt600_RI2019_newlib/xtensa-elf/lib/\libc.a(lib_a-wsetup.o)
 .xtensa.info   0x00000000        0x0 C:/usr/xtensa/XtDevTools/install/builds/RI-2019.1-win32/nxp_rt600_RI2019_newlib/xtensa-elf/lib/\libc.a(_atexit.o)
 .xtensa.info   0x00000000        0x0 C:/usr/xtensa/XtDevTools/install/builds/RI-2019.1-win32/nxp_rt600_RI2019_newlib/xtensa-elf/lib/\libc.a(lib_a-__call_atexit.o)
 .xtensa.info   0x00000000        0x0 C:/usr/xtensa/XtDevTools/install/builds/RI-2019.1-win32/nxp_rt600_RI2019_newlib/xtensa-elf/lib/\libc.a(lib_a-abort.o)
 .xtensa.info   0x00000000        0x0 C:/usr/xtensa/XtDevTools/install/builds/RI-2019.1-win32/nxp_rt600_RI2019_newlib/xtensa-elf/lib/\libc.a(lib_a-ctype_.o)
 .xtensa.info   0x00000000        0x0 C:/usr/xtensa/XtDevTools/install/builds/RI-2019.1-win32/nxp_rt600_RI2019_newlib/xtensa-elf/lib/\libc.a(lib_a-fflush.o)
 .xtensa.info   0x00000000        0x0 C:/usr/xtensa/XtDevTools/install/builds/RI-2019.1-win32/nxp_rt600_RI2019_newlib/xtensa-elf/lib/\libc.a(lib_a-findfp.o)
 .xtensa.info   0x00000000        0x0 C:/usr/xtensa/XtDevTools/install/builds/RI-2019.1-win32/nxp_rt600_RI2019_newlib/xtensa-elf/lib/\libc.a(lib_a-fputwc.o)
 .xtensa.info   0x00000000        0x0 C:/usr/xtensa/XtDevTools/install/builds/RI-2019.1-win32/nxp_rt600_RI2019_newlib/xtensa-elf/lib/\libc.a(lib_a-freer.o)
 .xtensa.info   0x00000000        0x0 C:/usr/xtensa/XtDevTools/install/builds/RI-2019.1-win32/nxp_rt600_RI2019_newlib/xtensa-elf/lib/\libc.a(lib_a-fvwrite.o)
 .xtensa.info   0x00000000        0x0 C:/usr/xtensa/XtDevTools/install/builds/RI-2019.1-win32/nxp_rt600_RI2019_newlib/xtensa-elf/lib/\libc.a(lib_a-fwalk.o)
 .xtensa.info   0x00000000        0x0 C:/usr/xtensa/XtDevTools/install/builds/RI-2019.1-win32/nxp_rt600_RI2019_newlib/xtensa-elf/lib/\libc.a(lib_a-locale.o)
 .xtensa.info   0x00000000        0x0 C:/usr/xtensa/XtDevTools/install/builds/RI-2019.1-win32/nxp_rt600_RI2019_newlib/xtensa-elf/lib/\libc.a(lib_a-makebuf.o)
 .xtensa.info   0x00000000        0x0 C:/usr/xtensa/XtDevTools/install/builds/RI-2019.1-win32/nxp_rt600_RI2019_newlib/xtensa-elf/lib/\libc.a(lib_a-memchr.o)
 .xtensa.info   0x00000000        0x0 C:/usr/xtensa/XtDevTools/install/builds/RI-2019.1-win32/nxp_rt600_RI2019_newlib/xtensa-elf/lib/\libc.a(lib_a-memmove.o)
 .xtensa.info   0x00000000        0x0 C:/usr/xtensa/XtDevTools/install/builds/RI-2019.1-win32/nxp_rt600_RI2019_newlib/xtensa-elf/lib/\libc.a(lib_a-reallocr.o)
 .xtensa.info   0x00000000        0x0 C:/usr/xtensa/XtDevTools/install/builds/RI-2019.1-win32/nxp_rt600_RI2019_newlib/xtensa-elf/lib/\libc.a(lib_a-signal.o)
 .xtensa.info   0x00000000        0x0 C:/usr/xtensa/XtDevTools/install/builds/RI-2019.1-win32/nxp_rt600_RI2019_newlib/xtensa-elf/lib/\libc.a(lib_a-stdio.o)
 .xtensa.info   0x00000000        0x0 C:/usr/xtensa/XtDevTools/install/builds/RI-2019.1-win32/nxp_rt600_RI2019_newlib/xtensa-elf/lib/\libc.a(lib_a-strcmp.o)
 .xtensa.info   0x00000000        0x0 C:/usr/xtensa/XtDevTools/install/builds/RI-2019.1-win32/nxp_rt600_RI2019_newlib/xtensa-elf/lib/\libc.a(lib_a-wbuf.o)
 .xtensa.info   0x00000000        0x0 C:/usr/xtensa/XtDevTools/install/builds/RI-2019.1-win32/nxp_rt600_RI2019_newlib/xtensa-elf/lib/\libc.a(lib_a-wcrtomb.o)
 .xtensa.info   0x00000000        0x0 C:/usr/xtensa/XtDevTools/install/builds/RI-2019.1-win32/nxp_rt600_RI2019_newlib/xtensa-elf/lib/\libc.a(lib_a-wctomb_r.o)
 .xtensa.info   0x00000000        0x0 C:/usr/xtensa/XtDevTools/install/builds/RI-2019.1-win32/nxp_rt600_RI2019_newlib/xtensa-elf/lib/\libc.a(isatty.o)
 .xtensa.info   0x00000000        0x0 C:/usr/xtensa/XtDevTools/install/builds/RI-2019.1-win32/nxp_rt600_RI2019_newlib/xtensa-elf/lib/\libc.a(lib_a-fclose.o)
 .xtensa.info   0x00000000        0x0 C:/usr/xtensa/XtDevTools/install/builds/RI-2019.1-win32/nxp_rt600_RI2019_newlib/xtensa-elf/lib/\libgdbio.a(close.o)
 .xtensa.info   0x00000000        0x0 C:/usr/xtensa/XtDevTools/install/builds/RI-2019.1-win32/nxp_rt600_RI2019_newlib/xtensa-elf/lib/\libgdbio.a(fstat.o)
 .xtensa.info   0x00000000        0x0 C:/usr/xtensa/XtDevTools/install/builds/RI-2019.1-win32/nxp_rt600_RI2019_newlib/xtensa-elf/lib/\libgdbio.a(kill.o)
 .xtensa.info   0x00000000        0x0 C:/usr/xtensa/XtDevTools/install/builds/RI-2019.1-win32/nxp_rt600_RI2019_newlib/xtensa-elf/lib/\libgdbio.a(libinit.o)
 .xtensa.info   0x00000000        0x0 C:/usr/xtensa/XtDevTools/install/builds/RI-2019.1-win32/nxp_rt600_RI2019_newlib/xtensa-elf/lib/\libgdbio.a(lseek.o)
 .xtensa.info   0x00000000        0x0 C:/usr/xtensa/XtDevTools/install/builds/RI-2019.1-win32/nxp_rt600_RI2019_newlib/xtensa-elf/lib/\libgdbio.a(read.o)
 .xtensa.info   0x00000000        0x0 C:/usr/xtensa/XtDevTools/install/builds/RI-2019.1-win32/nxp_rt600_RI2019_newlib/xtensa-elf/lib/\libgdbio.a(semihosting.o)
 .xtensa.info   0x00000000        0x0 C:/usr/xtensa/XtDevTools/install/builds/RI-2019.1-win32/nxp_rt600_RI2019_newlib/xtensa-elf/lib/\libgdbio.a(syscall.o)
 .xtensa.info   0x00000000        0x0 C:/usr/xtensa/XtDevTools/install/builds/RI-2019.1-win32/nxp_rt600_RI2019_newlib/xtensa-elf/lib/\libgdbio.a(write.o)
 .xtensa.info   0x00000000        0x0 C:/usr/xtensa/XtDevTools/install/builds/RI-2019.1-win32/nxp_rt600_RI2019_newlib/xtensa-elf/lib/\libgdbio.a(getpid.o)
 .xtensa.info   0x00000000        0x0 C:/usr/xtensa/XtDevTools/install/builds/RI-2019.1-win32/nxp_rt600_RI2019_newlib/xtensa-elf/lib/\libgdbio.a(miniboard.o)
 .xtensa.info   0x00000000        0x0 C:/usr/xtensa/XtDevTools/install/builds/RI-2019.1-win32/nxp_rt600_RI2019_newlib/xtensa-elf/arch/lib/\libhandler-reset.a(reset-vector.o)
 .xtensa.info   0x00000000        0x0 C:/usr/xtensa/XtDevTools/install/builds/RI-2019.1-win32/nxp_rt600_RI2019_newlib/xtensa-elf/arch/lib/\libhandlers-board.a(exit.o)
 .xtensa.info   0x00000000        0x0 C:/usr/xtensa/XtDevTools/install/builds/RI-2019.1-win32/nxp_rt600_RI2019_newlib/xtensa-elf/arch/lib/\libhandlers-board.a(memctl_default.o)
 .xtensa.info   0x00000000        0x0 C:/usr/xtensa/XtDevTools/install/builds/RI-2019.1-win32/nxp_rt600_RI2019_newlib/xtensa-elf/arch/lib/\libhal.a(windowspill_asm.o)
 .xtensa.info   0x00000000        0x0 C:/usr/xtensa/XtDevTools/install/builds/RI-2019.1-win32/nxp_rt600_RI2019_newlib/xtensa-elf/arch/lib/\libhal.a(cache_asm--dcache_all_writeback.o)
 .xtensa.info   0x00000000        0x0 C:/usr/xtensa/XtDevTools/install/builds/RI-2019.1-win32/nxp_rt600_RI2019_newlib/xtensa-elf/arch/lib/\libhal.a(cache_asm--hw_configid0.o)
 .xtensa.info   0x00000000        0x0 C:/usr/xtensa/XtDevTools/install/builds/RI-2019.1-win32/nxp_rt600_RI2019_newlib/xtensa-elf/arch/lib/\libhal.a(cache_asm--hw_configid1.o)
 .xtensa.info   0x00000000        0x0 C:/usr/xtensa/XtDevTools/install/builds/RI-2019.1-win32/nxp_rt600_RI2019_newlib/xtensa-elf/arch/lib/\libhal.a(cache_asm--release_major.o)
 .xtensa.info   0x00000000        0x0 C:/usr/xtensa/XtDevTools/install/builds/RI-2019.1-win32/nxp_rt600_RI2019_newlib/xtensa-elf/arch/lib/\libhal.a(cache_asm--release_minor.o)
 .xtensa.info   0x00000000        0x0 C:/usr/xtensa/XtDevTools/install/builds/RI-2019.1-win32/nxp_rt600_RI2019_newlib/xtensa-elf/arch/lib/\libhal.a(const--intlevel.o)
 .xtensa.info   0x00000000        0x0 C:/usr/xtensa/XtDevTools/install/builds/RI-2019.1-win32/nxp_rt600_RI2019_newlib/xtensa-elf/arch/lib/\libhal.a(const--intlevel_mask.o)
 .xtensa.info   0x00000000        0x0 C:/usr/xtensa/XtDevTools/install/builds/RI-2019.1-win32/nxp_rt600_RI2019_newlib/xtensa-elf/arch/lib/\libhal.a(const--timer_interrupt.o)
 .xtensa.info   0x00000000        0x0 C:/usr/xtensa/XtDevTools/install/builds/RI-2019.1-win32/nxp_rt600_RI2019_newlib/xtensa-elf/arch/lib/\libhal.a(attribute.o)
 .xtensa.info   0x00000000        0x0 C:/usr/xtensa/XtDevTools/install/builds/RI-2019.1-win32/nxp_rt600_RI2019_newlib/xtensa-elf/arch/lib/\libhal.a(clock.o)
 .xtensa.info   0x00000000        0x0 C:/usr/xtensa/XtDevTools/install/builds/RI-2019.1-win32/nxp_rt600_RI2019_newlib/xtensa-elf/arch/lib/\libhal.a(cache_attr--get_cacheattr.o)
 .xtensa.info   0x00000000        0x0 C:/usr/xtensa/XtDevTools/install/builds/RI-2019.1-win32/nxp_rt600_RI2019_newlib/xtensa-elf/arch/lib/\libhal.a(cache_attr--set_cacheattr.o)
 .xtensa.info   0x00000000        0x0 C:/usr/xtensa/XtDevTools/install/builds/RI-2019.1-win32/nxp_rt600_RI2019_newlib/xtensa-elf/arch/lib/\libhal.a(cache_asm--dcache_all_writeback_inv.o)
 .xtensa.info   0x00000000        0x0 C:/usr/xtensa/XtDevTools/install/builds/RI-2019.1-win32/nxp_rt600_RI2019_newlib/xtensa-elf/arch/lib/\libhal.a(cache_asm--icache_all_invalidate.o)
 .xtensa.info   0x00000000        0x0 C:/usr/xtensa/XtDevTools/install/builds/RI-2019.1-win32/nxp_rt600_RI2019_newlib/xtensa-elf/lib/xcc/\libgcc.a(_umoddi3.o)
 .xtensa.info   0x00000000        0x0 C:/usr/xtensa/XtDevTools/install/builds/RI-2019.1-win32/nxp_rt600_RI2019_newlib/xtensa-elf/lib/xcc/crtend.o
 .xtensa.info   0x00000000        0x0 C:/usr/xtensa/XtDevTools/install/builds/RI-2019.1-win32/nxp_rt600_RI2019_newlib/xtensa-elf/lib/xcc/crtn.o

.comment        0x00000000     0x31df
 .comment       0x00000000       0x97 C:/usr/xtensa/XtDevTools/install/builds/RI-2019.1-win32/nxp_rt600_RI2019_newlib/xtensa-elf/lib/xcc/crtbegin.o
                                         0x98 (size before relaxing)
 .comment       0x00000097       0xae MIMXRT685S/system_MIMXRT685S_dsp.o
                                         0xaf (size before relaxing)
 .comment       0x00000145       0xd2 board/pin_mux.o
                                         0xd3 (size before relaxing)
 .comment       0x00000217       0xa3 component/lists/generic_list.o
                                         0xa4 (size before relaxing)
 .comment       0x000002ba       0xae component/serial_manager/serial_manager.o
                                         0xaf (size before relaxing)
 .comment       0x00000368       0xb0 component/serial_manager/serial_port_uart.o
                                         0xb1 (size before relaxing)
 .comment       0x00000418       0xa3 component/uart/usart_adapter.o
                                         0xa4 (size before relaxing)
 .comment       0x000004bb       0xaa drivers/fsl_clock.o
                                         0xab (size before relaxing)
 .comment       0x00000565       0xab drivers/fsl_common.o
                                         0xac (size before relaxing)
 .comment       0x00000610       0xad drivers/fsl_flexcomm.o
                                         0xae (size before relaxing)
 .comment       0x000006bd       0xa9 drivers/fsl_gpio.o
                                         0xaa (size before relaxing)
 .comment       0x00000766       0xaa drivers/fsl_reset.o
                                         0xab (size before relaxing)
 .comment       0x00000810       0xaa drivers/fsl_usart.o
                                         0xab (size before relaxing)
 .comment       0x000008ba       0xe6 drivers_audio/fsl_dma.o
                                         0xe7 (size before relaxing)
 .comment       0x000009a0       0xe7 drivers_audio/fsl_dmic.o
                                         0xe8 (size before relaxing)
 .comment       0x00000a87       0xeb drivers_audio/fsl_dmic_dma.o
                                         0xec (size before relaxing)
 .comment       0x00000b72       0xe6 drivers_audio/fsl_i2s.o
                                         0xe7 (size before relaxing)
 .comment       0x00000c58       0xea drivers_audio/fsl_i2s_dma.o
                                         0xeb (size before relaxing)
 .comment       0x00000d42       0xeb drivers_audio/fsl_inputmux.o
                                         0xec (size before relaxing)
 .comment       0x00000e2d       0xd6 evkmimxrt685/board_hifi4.o
                                         0xd7 (size before relaxing)
 .comment       0x00000f03       0xda user/main.o
                                         0xdb (size before relaxing)
 .comment       0x00000fdd       0xe2 user/user_pin_mux.o
                                         0xe3 (size before relaxing)
 .comment       0x000010bf       0xc2 utilities/fsl_debug_console.o
                                         0xc3 (size before relaxing)
 .comment       0x00001181       0xae utilities/fsl_str.o
                                         0xaf (size before relaxing)
 .comment       0x0000122f       0x8f C:/usr/xtensa/XtDevTools/install/builds/RI-2019.1-win32/nxp_rt600_RI2019_newlib/xtensa-elf/arch/lib/\libxos.a(xos.o)
                                         0x90 (size before relaxing)
 .comment       0x000012be       0x9a C:/usr/xtensa/XtDevTools/install/builds/RI-2019.1-win32/nxp_rt600_RI2019_newlib/xtensa-elf/arch/lib/\libxos.a(xos_start_main.o)
                                         0x9b (size before relaxing)
 .comment       0x00001358       0x96 C:/usr/xtensa/XtDevTools/install/builds/RI-2019.1-win32/nxp_rt600_RI2019_newlib/xtensa-elf/arch/lib/\libxos.a(xos_thread.o)
                                         0x97 (size before relaxing)
 .comment       0x000013ee       0x95 C:/usr/xtensa/XtDevTools/install/builds/RI-2019.1-win32/nxp_rt600_RI2019_newlib/xtensa-elf/arch/lib/\libxos.a(xos_timer.o)
                                         0x96 (size before relaxing)
 .comment       0x00001483       0x94 C:/usr/xtensa/XtDevTools/install/builds/RI-2019.1-win32/nxp_rt600_RI2019_newlib/xtensa-elf/arch/lib/\libxos.a(xos_clib.o)
                                         0x95 (size before relaxing)
 .comment       0x00001517       0x95 C:/usr/xtensa/XtDevTools/install/builds/RI-2019.1-win32/nxp_rt600_RI2019_newlib/xtensa-elf/arch/lib/\libxos.a(xos_mutex.o)
                                         0x96 (size before relaxing)
 .comment       0x000015ac       0x94 C:/usr/xtensa/XtDevTools/install/builds/RI-2019.1-win32/nxp_rt600_RI2019_newlib/xtensa-elf/arch/lib/\libxos.a(xos_once.o)
                                         0x95 (size before relaxing)
 .comment       0x00001640       0x9c C:/usr/xtensa/XtDevTools/install/builds/RI-2019.1-win32/nxp_rt600_RI2019_newlib/xtensa-elf/arch/lib/\libxos.a(xos_system_timer.o)
                                         0x9d (size before relaxing)
 .comment       0x000016dc       0x96 C:/usr/xtensa/XtDevTools/install/builds/RI-2019.1-win32/nxp_rt600_RI2019_newlib/xtensa-elf/lib/xcc/\libgcc.a(_muldi3.o)
                                         0x97 (size before relaxing)
 .comment       0x00000000       0x97 C:/usr/xtensa/XtDevTools/install/builds/RI-2019.1-win32/nxp_rt600_RI2019_newlib/xtensa-elf/lib/xcc/\libgcc.a(_udivdi3.o)
 .comment       0x00001772       0xac C:/usr/xtensa/XtDevTools/install/builds/RI-2019.1-win32/nxp_rt600_RI2019_newlib/xtensa-elf/lib/\libc.a(clibrary_init.o)
                                         0xad (size before relaxing)
 .comment       0x0000181e       0xa1 C:/usr/xtensa/XtDevTools/install/builds/RI-2019.1-win32/nxp_rt600_RI2019_newlib/xtensa-elf/lib/\libc.a(lib_a-assert.o)
                                         0xa2 (size before relaxing)
 .comment       0x000018bf       0xa2 C:/usr/xtensa/XtDevTools/install/builds/RI-2019.1-win32/nxp_rt600_RI2019_newlib/xtensa-elf/lib/\libc.a(lib_a-environ.o)
                                         0xa3 (size before relaxing)
 .comment       0x00001961       0x9f C:/usr/xtensa/XtDevTools/install/builds/RI-2019.1-win32/nxp_rt600_RI2019_newlib/xtensa-elf/lib/\libc.a(lib_a-exit.o)
                                         0xa0 (size before relaxing)
 .comment       0x00001a00       0xa2 C:/usr/xtensa/XtDevTools/install/builds/RI-2019.1-win32/nxp_rt600_RI2019_newlib/xtensa-elf/lib/\libc.a(lib_a-fiprintf.o)
                                         0xa3 (size before relaxing)
 .comment       0x00001aa2       0xa0 C:/usr/xtensa/XtDevTools/install/builds/RI-2019.1-win32/nxp_rt600_RI2019_newlib/xtensa-elf/lib/\libc.a(lib_a-impure.o)
                                         0xa1 (size before relaxing)
 .comment       0x00001b42       0xa1 C:/usr/xtensa/XtDevTools/install/builds/RI-2019.1-win32/nxp_rt600_RI2019_newlib/xtensa-elf/lib/\libc.a(lib_a-malloc.o)
                                         0xa2 (size before relaxing)
 .comment       0x00001be3       0xa2 C:/usr/xtensa/XtDevTools/install/builds/RI-2019.1-win32/nxp_rt600_RI2019_newlib/xtensa-elf/lib/\libc.a(lib_a-mallocr.o)
                                         0xa3 (size before relaxing)
 .comment       0x00001c85       0x9f C:/usr/xtensa/XtDevTools/install/builds/RI-2019.1-win32/nxp_rt600_RI2019_newlib/xtensa-elf/lib/\libc.a(lib_a-reent.o)
                                         0xa0 (size before relaxing)
 .comment       0x00001d24       0xa2 C:/usr/xtensa/XtDevTools/install/builds/RI-2019.1-win32/nxp_rt600_RI2019_newlib/xtensa-elf/lib/\libc.a(lib_a-strtoul.o)
                                         0xa3 (size before relaxing)
 .comment       0x00001dc6       0xa2 C:/usr/xtensa/XtDevTools/install/builds/RI-2019.1-win32/nxp_rt600_RI2019_newlib/xtensa-elf/lib/\libc.a(lib_a-vfiprintf.o)
                                         0xa3 (size before relaxing)
 .comment       0x00001e68       0xa0 C:/usr/xtensa/XtDevTools/install/builds/RI-2019.1-win32/nxp_rt600_RI2019_newlib/xtensa-elf/lib/\libc.a(lib_a-wsetup.o)
                                         0xa1 (size before relaxing)
 .comment       0x00001f08       0xa6 C:/usr/xtensa/XtDevTools/install/builds/RI-2019.1-win32/nxp_rt600_RI2019_newlib/xtensa-elf/lib/\libc.a(_atexit.o)
                                         0xa7 (size before relaxing)
 .comment       0x00001fae       0xa8 C:/usr/xtensa/XtDevTools/install/builds/RI-2019.1-win32/nxp_rt600_RI2019_newlib/xtensa-elf/lib/\libc.a(lib_a-__call_atexit.o)
                                         0xa9 (size before relaxing)
 .comment       0x00002056       0xa0 C:/usr/xtensa/XtDevTools/install/builds/RI-2019.1-win32/nxp_rt600_RI2019_newlib/xtensa-elf/lib/\libc.a(lib_a-abort.o)
                                         0xa1 (size before relaxing)
 .comment       0x000020f6       0xa0 C:/usr/xtensa/XtDevTools/install/builds/RI-2019.1-win32/nxp_rt600_RI2019_newlib/xtensa-elf/lib/\libc.a(lib_a-ctype_.o)
                                         0xa1 (size before relaxing)
 .comment       0x00002196       0xa0 C:/usr/xtensa/XtDevTools/install/builds/RI-2019.1-win32/nxp_rt600_RI2019_newlib/xtensa-elf/lib/\libc.a(lib_a-fflush.o)
                                         0xa1 (size before relaxing)
 .comment       0x00002236       0xa0 C:/usr/xtensa/XtDevTools/install/builds/RI-2019.1-win32/nxp_rt600_RI2019_newlib/xtensa-elf/lib/\libc.a(lib_a-findfp.o)
                                         0xa1 (size before relaxing)
 .comment       0x000022d6       0xa0 C:/usr/xtensa/XtDevTools/install/builds/RI-2019.1-win32/nxp_rt600_RI2019_newlib/xtensa-elf/lib/\libc.a(lib_a-fputwc.o)
                                         0xa1 (size before relaxing)
 .comment       0x00000000       0xa3 C:/usr/xtensa/XtDevTools/install/builds/RI-2019.1-win32/nxp_rt600_RI2019_newlib/xtensa-elf/lib/\libc.a(lib_a-freer.o)
 .comment       0x00002376       0xa1 C:/usr/xtensa/XtDevTools/install/builds/RI-2019.1-win32/nxp_rt600_RI2019_newlib/xtensa-elf/lib/\libc.a(lib_a-fvwrite.o)
                                         0xa2 (size before relaxing)
 .comment       0x00002417       0x9f C:/usr/xtensa/XtDevTools/install/builds/RI-2019.1-win32/nxp_rt600_RI2019_newlib/xtensa-elf/lib/\libc.a(lib_a-fwalk.o)
                                         0xa0 (size before relaxing)
 .comment       0x000024b6       0xa1 C:/usr/xtensa/XtDevTools/install/builds/RI-2019.1-win32/nxp_rt600_RI2019_newlib/xtensa-elf/lib/\libc.a(lib_a-locale.o)
                                         0xa2 (size before relaxing)
 .comment       0x00002557       0xa1 C:/usr/xtensa/XtDevTools/install/builds/RI-2019.1-win32/nxp_rt600_RI2019_newlib/xtensa-elf/lib/\libc.a(lib_a-makebuf.o)
                                         0xa2 (size before relaxing)
 .comment       0x000025f8       0xa1 C:/usr/xtensa/XtDevTools/install/builds/RI-2019.1-win32/nxp_rt600_RI2019_newlib/xtensa-elf/lib/\libc.a(lib_a-memchr.o)
                                         0xa2 (size before relaxing)
 .comment       0x00002699       0xa2 C:/usr/xtensa/XtDevTools/install/builds/RI-2019.1-win32/nxp_rt600_RI2019_newlib/xtensa-elf/lib/\libc.a(lib_a-memmove.o)
                                         0xa3 (size before relaxing)
 .comment       0x00000000       0xa3 C:/usr/xtensa/XtDevTools/install/builds/RI-2019.1-win32/nxp_rt600_RI2019_newlib/xtensa-elf/lib/\libc.a(lib_a-reallocr.o)
 .comment       0x0000273b       0xa1 C:/usr/xtensa/XtDevTools/install/builds/RI-2019.1-win32/nxp_rt600_RI2019_newlib/xtensa-elf/lib/\libc.a(lib_a-signal.o)
                                         0xa2 (size before relaxing)
 .comment       0x000027dc       0x9f C:/usr/xtensa/XtDevTools/install/builds/RI-2019.1-win32/nxp_rt600_RI2019_newlib/xtensa-elf/lib/\libc.a(lib_a-stdio.o)
                                         0xa0 (size before relaxing)
 .comment       0x0000287b       0x9e C:/usr/xtensa/XtDevTools/install/builds/RI-2019.1-win32/nxp_rt600_RI2019_newlib/xtensa-elf/lib/\libc.a(lib_a-wbuf.o)
                                         0x9f (size before relaxing)
 .comment       0x00002919       0xa2 C:/usr/xtensa/XtDevTools/install/builds/RI-2019.1-win32/nxp_rt600_RI2019_newlib/xtensa-elf/lib/\libc.a(lib_a-wcrtomb.o)
                                         0xa3 (size before relaxing)
 .comment       0x000029bb       0xa3 C:/usr/xtensa/XtDevTools/install/builds/RI-2019.1-win32/nxp_rt600_RI2019_newlib/xtensa-elf/lib/\libc.a(lib_a-wctomb_r.o)
                                         0xa4 (size before relaxing)
 .comment       0x00002a5e       0xa5 C:/usr/xtensa/XtDevTools/install/builds/RI-2019.1-win32/nxp_rt600_RI2019_newlib/xtensa-elf/lib/\libc.a(isatty.o)
                                         0xa6 (size before relaxing)
 .comment       0x00002b03       0xa0 C:/usr/xtensa/XtDevTools/install/builds/RI-2019.1-win32/nxp_rt600_RI2019_newlib/xtensa-elf/lib/\libc.a(lib_a-fclose.o)
                                         0xa1 (size before relaxing)
 .comment       0x00002ba3       0x8f C:/usr/xtensa/XtDevTools/install/builds/RI-2019.1-win32/nxp_rt600_RI2019_newlib/xtensa-elf/lib/\libgdbio.a(close.o)
                                         0x90 (size before relaxing)
 .comment       0x00002c32       0x8f C:/usr/xtensa/XtDevTools/install/builds/RI-2019.1-win32/nxp_rt600_RI2019_newlib/xtensa-elf/lib/\libgdbio.a(fstat.o)
                                         0x90 (size before relaxing)
 .comment       0x00002cc1       0x8e C:/usr/xtensa/XtDevTools/install/builds/RI-2019.1-win32/nxp_rt600_RI2019_newlib/xtensa-elf/lib/\libgdbio.a(kill.o)
                                         0x8f (size before relaxing)
 .comment       0x00002d4f       0x8f C:/usr/xtensa/XtDevTools/install/builds/RI-2019.1-win32/nxp_rt600_RI2019_newlib/xtensa-elf/lib/\libgdbio.a(lseek.o)
                                         0x90 (size before relaxing)
 .comment       0x00002dde       0x8e C:/usr/xtensa/XtDevTools/install/builds/RI-2019.1-win32/nxp_rt600_RI2019_newlib/xtensa-elf/lib/\libgdbio.a(read.o)
                                         0x8f (size before relaxing)
 .comment       0x00002e6c       0x95 C:/usr/xtensa/XtDevTools/install/builds/RI-2019.1-win32/nxp_rt600_RI2019_newlib/xtensa-elf/lib/\libgdbio.a(semihosting.o)
                                         0x96 (size before relaxing)
 .comment       0x00002f01       0x8f C:/usr/xtensa/XtDevTools/install/builds/RI-2019.1-win32/nxp_rt600_RI2019_newlib/xtensa-elf/lib/\libgdbio.a(write.o)
                                         0x90 (size before relaxing)
 .comment       0x00002f90       0x90 C:/usr/xtensa/XtDevTools/install/builds/RI-2019.1-win32/nxp_rt600_RI2019_newlib/xtensa-elf/lib/\libgdbio.a(getpid.o)
                                         0x91 (size before relaxing)
 .comment       0x00003020       0x93 C:/usr/xtensa/XtDevTools/install/builds/RI-2019.1-win32/nxp_rt600_RI2019_newlib/xtensa-elf/lib/\libgdbio.a(miniboard.o)
                                         0x94 (size before relaxing)
 .comment       0x000030b3       0x8d C:/usr/xtensa/XtDevTools/install/builds/RI-2019.1-win32/nxp_rt600_RI2019_newlib/xtensa-elf/arch/lib/\libhal.a(const--intlevel.o)
                                         0x8e (size before relaxing)
 .comment       0x00000000       0x8e C:/usr/xtensa/XtDevTools/install/builds/RI-2019.1-win32/nxp_rt600_RI2019_newlib/xtensa-elf/arch/lib/\libhal.a(const--intlevel_mask.o)
 .comment       0x00000000       0x8e C:/usr/xtensa/XtDevTools/install/builds/RI-2019.1-win32/nxp_rt600_RI2019_newlib/xtensa-elf/arch/lib/\libhal.a(const--timer_interrupt.o)
 .comment       0x00003140       0x9f C:/usr/xtensa/XtDevTools/install/builds/RI-2019.1-win32/nxp_rt600_RI2019_newlib/xtensa-elf/arch/lib/\libhal.a(attribute.o)
                                         0xa0 (size before relaxing)
 .comment       0x00000000       0x97 C:/usr/xtensa/XtDevTools/install/builds/RI-2019.1-win32/nxp_rt600_RI2019_newlib/xtensa-elf/lib/xcc/\libgcc.a(_umoddi3.o)
 .comment       0x00000000       0x98 C:/usr/xtensa/XtDevTools/install/builds/RI-2019.1-win32/nxp_rt600_RI2019_newlib/xtensa-elf/lib/xcc/crtend.o

.debug_ranges   0x00000000       0x50
 .debug_ranges  0x00000000       0x50 C:/usr/xtensa/XtDevTools/install/builds/RI-2019.1-win32/nxp_rt600_RI2019_newlib/xtensa-elf/arch/lib/\libxos.a(xos_vectors.o)

Memory Configuration

Name             Origin          Length          Used            Unused          Attributes
dsp_core_seg     0x00200000      0x00280000      0x0001dc38      0x002623c8      
dsp_uncached_seg 0x20040000      0x00040000      0x00000710      0x0003f8f0      
dram0_0_seg      0x24000000      0x00010000      0x0000000c      0x0000fff4      
iram0_0_seg      0x24020000      0x00000400      0x0000013c      0x000002c4      
iram0_1_seg      0x24020400      0x0000017c      0x0000016c      0x00000010      
iram0_2_seg      0x2402057c      0x00000020      0x0000001c      0x00000004      
iram0_3_seg      0x2402059c      0x00000020      0x0000000c      0x00000014      
iram0_4_seg      0x240205bc      0x00000020      0x0000000c      0x00000014      
iram0_5_seg      0x240205dc      0x00000020      0x0000000c      0x00000014      
iram0_6_seg      0x240205fc      0x00000020      0x0000000c      0x00000014      
iram0_7_seg      0x2402061c      0x00000020      0x00000018      0x00000008      
iram0_8_seg      0x2402063c      0x0000f9c4      0x00000008      0x0000f9bc      
*default*        0x00000000      0xffffffff      
